

Microchip Technology PIC18 LITE Macro Assembler V1.12 build 49521 
                                                                                               Wed Jun 26 23:10:05 2013

HI-TECH Software Omniscient Code Generator (Lite mode) build 49521
     1  0000                     opt subtitle "HI-TECH Software Omniscient Code Generator (Lite mode) build 49521"
     2                           opt subtitle "HI-TECH Software Omniscient Code Generator (Lite mode) build 49521"
     3                           
     4                           opt pagewidth 120
     5                           
     6                           	opt lm
     7                           
     8  0000                     porta	equ	0F80h
     9  0000                     portb	equ	0F81h
    10  0000                     portc	equ	0F82h
    11  0000                     portd	equ	0F83h
    12  0000                     porte	equ	0F84h
    13  0000                     lata	equ	0F89h
    14  0000                     latb	equ	0F8Ah
    15  0000                     latc	equ	0F8Bh
    16  0000                     latd	equ	0F8Ch
    17  0000                     late	equ	0F8Dh
    18  0000                     trisa	equ	0F92h
    19  0000                     trisb	equ	0F93h
    20  0000                     trisc	equ	0F94h
    21  0000                     trisd	equ	0F95h
    22  0000                     trise	equ	0F96h
    23  0000                     pie1	equ	0F9Dh
    24  0000                     pir1	equ	0F9Eh
    25  0000                     ipr1	equ	0F9Fh
    26  0000                     pie2	equ	0FA0h
    27  0000                     pir2	equ	0FA1h
    28  0000                     ipr2	equ	0FA2h
    29  0000                     t3con	equ	0FB1h
    30  0000                     tmr3l	equ	0FB2h
    31  0000                     tmr3h	equ	0FB3h
    32  0000                     ccp1con	equ	0FBDh
    33  0000                     ccpr1l	equ	0FBEh
    34  0000                     ccpr1h	equ	0FBFh
    35  0000                     adcon1	equ	0FC1h
    36  0000                     adcon0	equ	0FC2h
    37  0000                     adresl	equ	0FC3h
    38  0000                     adresh	equ	0FC4h
    39  0000                     sspcon2	equ	0FC5h
    40  0000                     sspcon1	equ	0FC6h
    41  0000                     sspstat	equ	0FC7h
    42  0000                     sspadd	equ	0FC8h
    43  0000                     sspbuf	equ	0FC9h
    44  0000                     t2con	equ	0FCAh
    45  0000                     pr2	equ	0FCBh
    46  0000                     tmr2	equ	0FCCh
    47  0000                     t1con	equ	0FCDh
    48  0000                     tmr1l	equ	0FCEh
    49  0000                     tmr1h	equ	0FCFh
    50  0000                     rcon	equ	0FD0h
    51  0000                     wdtcon	equ	0FD1h
    52  0000                     lvdcon	equ	0FD2h
    53  0000                     osccon	equ	0FD3h
    54  0000                     t0con	equ	0FD5h
    55  0000                     tmr0l	equ	0FD6h
    56  0000                     tmr0h	equ	0FD7h
    57  0000                     status	equ	0FD8h
    58  0000                     fsr2	equ	0FD9h
    59  0000                     fsr2l	equ	0FD9h
    60  0000                     fsr2h	equ	0FDAh
    61  0000                     plusw2	equ	0FDBh
    62  0000                     preinc2	equ	0FDCh
    63  0000                     postdec2	equ	0FDDh
    64  0000                     postinc2	equ	0FDEh
    65  0000                     indf2	equ	0FDFh
    66  0000                     bsr	equ	0FE0h
    67  0000                     fsr1	equ	0FE1h
    68  0000                     fsr1l	equ	0FE1h
    69  0000                     fsr1h	equ	0FE2h
    70  0000                     plusw1	equ	0FE3h
    71  0000                     preinc1	equ	0FE4h
    72  0000                     postdec1	equ	0FE5h
    73  0000                     postinc1	equ	0FE6h
    74  0000                     indf1	equ	0FE7h
    75  0000                     wreg	equ	0FE8h
    76  0000                     fsr0	equ	0FE9h
    77  0000                     fsr0l	equ	0FE9h
    78  0000                     fsr0h	equ	0FEAh
    79  0000                     plusw0	equ	0FEBh
    80  0000                     preinc0	equ	0FECh
    81  0000                     postdec0	equ	0FEDh
    82  0000                     postinc0	equ	0FEEh
    83  0000                     indf0	equ	0FEFh
    84  0000                     intcon3	equ	0FF0h
    85  0000                     intcon2	equ	0FF1h
    86  0000                     intcon	equ	0FF2h
    87  0000                     prod	equ	0FF3h
    88  0000                     prodl	equ	0FF3h
    89  0000                     prodh	equ	0FF4h
    90  0000                     tablat	equ	0FF5h
    91  0000                     tblptr	equ	0FF6h
    92  0000                     tblptrl	equ	0FF6h
    93  0000                     tblptrh	equ	0FF7h
    94  0000                     tblptru	equ	0FF8h
    95  0000                     pcl	equ	0FF9h
    96  0000                     pclat	equ	0FFAh
    97  0000                     pclath	equ	0FFAh
    98  0000                     pclatu	equ	0FFBh
    99  0000                     stkptr	equ	0FFCh
   100  0000                     tosl	equ	0FFDh
   101  0000                     tosh	equ	0FFEh
   102  0000                     tosu	equ	0FFFh
   103                           opt subtitle "HI-TECH Software Omniscient Code Generator (Lite mode) build 49521"
   104                           
   105  0000                     	endm
   106                           opt subtitle "HI-TECH Software Omniscient Code Generator (Lite mode) build 49521"
   107                           
   108                           opt pagewidth 120
   109  0000                     RXF6SIDH equ 0D60h ;# 
   110                           opt subtitle "HI-TECH Software Omniscient Code Generator (Lite mode) build 49521"
   111  0000                     RXF6SIDL equ 0D61h ;# 
   112                           opt subtitle "HI-TECH Software Omniscient Code Generator (Lite mode) build 49521"
   113  0000                     RXF6EIDH equ 0D62h ;# 
   114                           opt subtitle "HI-TECH Software Omniscient Code Generator (Lite mode) build 49521"
   115  0000                     RXF6EIDL equ 0D63h ;# 
   116                           opt subtitle "HI-TECH Software Omniscient Code Generator (Lite mode) build 49521"
   117  0000                     RXF7SIDH equ 0D64h ;# 
   118                           opt subtitle "HI-TECH Software Omniscient Code Generator (Lite mode) build 49521"
   119  0000                     RXF7SIDL equ 0D65h ;# 
   120                           opt subtitle "HI-TECH Software Omniscient Code Generator (Lite mode) build 49521"
   121  0000                     RXF7EIDH equ 0D66h ;# 
   122                           opt subtitle "HI-TECH Software Omniscient Code Generator (Lite mode) build 49521"
   123  0000                     RXF7EIDL equ 0D67h ;# 
   124                           opt subtitle "HI-TECH Software Omniscient Code Generator (Lite mode) build 49521"
   125  0000                     RXF8SIDH equ 0D68h ;# 
   126                           opt subtitle "HI-TECH Software Omniscient Code Generator (Lite mode) build 49521"
   127  0000                     RXF8SIDL equ 0D69h ;# 
   128                           opt subtitle "HI-TECH Software Omniscient Code Generator (Lite mode) build 49521"
   129  0000                     RXF8EIDH equ 0D6Ah ;# 
   130                           opt subtitle "HI-TECH Software Omniscient Code Generator (Lite mode) build 49521"
   131  0000                     RXF8EIDL equ 0D6Bh ;# 
   132                           opt subtitle "HI-TECH Software Omniscient Code Generator (Lite mode) build 49521"
   133  0000                     RXF9SIDH equ 0D70h ;# 
   134                           opt subtitle "HI-TECH Software Omniscient Code Generator (Lite mode) build 49521"
   135  0000                     RXF9SIDL equ 0D71h ;# 
   136                           opt subtitle "HI-TECH Software Omniscient Code Generator (Lite mode) build 49521"
   137  0000                     RXF9EIDH equ 0D72h ;# 
   138                           opt subtitle "HI-TECH Software Omniscient Code Generator (Lite mode) build 49521"
   139  0000                     RXF9EIDL equ 0D73h ;# 
   140                           opt subtitle "HI-TECH Software Omniscient Code Generator (Lite mode) build 49521"
   141  0000                     RXF10SIDH equ 0D74h ;# 
   142                           opt subtitle "HI-TECH Software Omniscient Code Generator (Lite mode) build 49521"
   143  0000                     RXF10SIDL equ 0D75h ;# 
   144                           opt subtitle "HI-TECH Software Omniscient Code Generator (Lite mode) build 49521"
   145  0000                     RXF10EIDH equ 0D76h ;# 
   146                           opt subtitle "HI-TECH Software Omniscient Code Generator (Lite mode) build 49521"
   147  0000                     RXF10EIDL equ 0D77h ;# 
   148                           opt subtitle "HI-TECH Software Omniscient Code Generator (Lite mode) build 49521"
   149  0000                     RXF11SIDH equ 0D78h ;# 
   150                           opt subtitle "HI-TECH Software Omniscient Code Generator (Lite mode) build 49521"
   151  0000                     RXF11SIDL equ 0D79h ;# 
   152                           opt subtitle "HI-TECH Software Omniscient Code Generator (Lite mode) build 49521"
   153  0000                     RXF11EIDH equ 0D7Ah ;# 
   154                           opt subtitle "HI-TECH Software Omniscient Code Generator (Lite mode) build 49521"
   155  0000                     RXF11EIDL equ 0D7Bh ;# 
   156                           opt subtitle "HI-TECH Software Omniscient Code Generator (Lite mode) build 49521"
   157  0000                     RXF12SIDH equ 0D80h ;# 
   158                           opt subtitle "HI-TECH Software Omniscient Code Generator (Lite mode) build 49521"
   159  0000                     RXF12SIDL equ 0D81h ;# 
   160                           opt subtitle "HI-TECH Software Omniscient Code Generator (Lite mode) build 49521"
   161  0000                     RXF12EIDH equ 0D82h ;# 
   162                           opt subtitle "HI-TECH Software Omniscient Code Generator (Lite mode) build 49521"
   163  0000                     RXF12EIDL equ 0D83h ;# 
   164                           opt subtitle "HI-TECH Software Omniscient Code Generator (Lite mode) build 49521"
   165  0000                     RXF13SIDH equ 0D84h ;# 
   166                           opt subtitle "HI-TECH Software Omniscient Code Generator (Lite mode) build 49521"
   167  0000                     RXF13SIDL equ 0D85h ;# 
   168                           opt subtitle "HI-TECH Software Omniscient Code Generator (Lite mode) build 49521"
   169  0000                     RXF13EIDH equ 0D86h ;# 
   170                           opt subtitle "HI-TECH Software Omniscient Code Generator (Lite mode) build 49521"
   171  0000                     RXF13EIDL equ 0D87h ;# 
   172                           opt subtitle "HI-TECH Software Omniscient Code Generator (Lite mode) build 49521"
   173  0000                     RXF14SIDH equ 0D88h ;# 
   174                           opt subtitle "HI-TECH Software Omniscient Code Generator (Lite mode) build 49521"
   175  0000                     RXF14SIDL equ 0D89h ;# 
   176                           opt subtitle "HI-TECH Software Omniscient Code Generator (Lite mode) build 49521"
   177  0000                     RXF14EIDH equ 0D8Ah ;# 
   178                           opt subtitle "HI-TECH Software Omniscient Code Generator (Lite mode) build 49521"
   179  0000                     RXF14EIDL equ 0D8Bh ;# 
   180                           opt subtitle "HI-TECH Software Omniscient Code Generator (Lite mode) build 49521"
   181  0000                     RXF15SIDH equ 0D90h ;# 
   182                           opt subtitle "HI-TECH Software Omniscient Code Generator (Lite mode) build 49521"
   183  0000                     RXF15SIDL equ 0D91h ;# 
   184                           opt subtitle "HI-TECH Software Omniscient Code Generator (Lite mode) build 49521"
   185  0000                     RXF15EIDH equ 0D92h ;# 
   186                           opt subtitle "HI-TECH Software Omniscient Code Generator (Lite mode) build 49521"
   187  0000                     RXF15EIDL equ 0D93h ;# 
   188                           opt subtitle "HI-TECH Software Omniscient Code Generator (Lite mode) build 49521"
   189  0000                     RXFCON0 equ 0DD4h ;# 
   190                           opt subtitle "HI-TECH Software Omniscient Code Generator (Lite mode) build 49521"
   191  0000                     RXFCON1 equ 0DD5h ;# 
   192                           opt subtitle "HI-TECH Software Omniscient Code Generator (Lite mode) build 49521"
   193  0000                     SDFLC equ 0DD8h ;# 
   194                           opt subtitle "HI-TECH Software Omniscient Code Generator (Lite mode) build 49521"
   195  0000                     RXFBCON0 equ 0DE0h ;# 
   196                           opt subtitle "HI-TECH Software Omniscient Code Generator (Lite mode) build 49521"
   197  0000                     RXFBCON1 equ 0DE1h ;# 
   198                           opt subtitle "HI-TECH Software Omniscient Code Generator (Lite mode) build 49521"
   199  0000                     RXFBCON2 equ 0DE2h ;# 
   200                           opt subtitle "HI-TECH Software Omniscient Code Generator (Lite mode) build 49521"
   201  0000                     RXFBCON3 equ 0DE3h ;# 
   202                           opt subtitle "HI-TECH Software Omniscient Code Generator (Lite mode) build 49521"
   203  0000                     RXFBCON4 equ 0DE4h ;# 
   204                           opt subtitle "HI-TECH Software Omniscient Code Generator (Lite mode) build 49521"
   205  0000                     RXFBCON5 equ 0DE5h ;# 
   206                           opt subtitle "HI-TECH Software Omniscient Code Generator (Lite mode) build 49521"
   207  0000                     RXFBCON6 equ 0DE6h ;# 
   208                           opt subtitle "HI-TECH Software Omniscient Code Generator (Lite mode) build 49521"
   209  0000                     RXFBCON7 equ 0DE7h ;# 
   210                           opt subtitle "HI-TECH Software Omniscient Code Generator (Lite mode) build 49521"
   211  0000                     MSEL0 equ 0DF0h ;# 
   212                           opt subtitle "HI-TECH Software Omniscient Code Generator (Lite mode) build 49521"
   213  0000                     MSEL1 equ 0DF1h ;# 
   214                           opt subtitle "HI-TECH Software Omniscient Code Generator (Lite mode) build 49521"
   215  0000                     MSEL2 equ 0DF2h ;# 
   216                           opt subtitle "HI-TECH Software Omniscient Code Generator (Lite mode) build 49521"
   217  0000                     MSEL3 equ 0DF3h ;# 
   218                           opt subtitle "HI-TECH Software Omniscient Code Generator (Lite mode) build 49521"
   219  0000                     BSEL0 equ 0DF8h ;# 
   220                           opt subtitle "HI-TECH Software Omniscient Code Generator (Lite mode) build 49521"
   221  0000                     BIE0 equ 0DFAh ;# 
   222                           opt subtitle "HI-TECH Software Omniscient Code Generator (Lite mode) build 49521"
   223  0000                     TXBIE equ 0DFCh ;# 
   224                           opt subtitle "HI-TECH Software Omniscient Code Generator (Lite mode) build 49521"
   225  0000                     B0CON equ 0E20h ;# 
   226                           opt subtitle "HI-TECH Software Omniscient Code Generator (Lite mode) build 49521"
   227  0000                     B0SIDH equ 0E21h ;# 
   228                           opt subtitle "HI-TECH Software Omniscient Code Generator (Lite mode) build 49521"
   229  0000                     B0SIDL equ 0E22h ;# 
   230                           opt subtitle "HI-TECH Software Omniscient Code Generator (Lite mode) build 49521"
   231  0000                     B0EIDH equ 0E23h ;# 
   232                           opt subtitle "HI-TECH Software Omniscient Code Generator (Lite mode) build 49521"
   233  0000                     B0EIDL equ 0E24h ;# 
   234                           opt subtitle "HI-TECH Software Omniscient Code Generator (Lite mode) build 49521"
   235  0000                     B0DLC equ 0E25h ;# 
   236                           opt subtitle "HI-TECH Software Omniscient Code Generator (Lite mode) build 49521"
   237  0000                     B0D0 equ 0E26h ;# 
   238                           opt subtitle "HI-TECH Software Omniscient Code Generator (Lite mode) build 49521"
   239  0000                     B0D1 equ 0E27h ;# 
   240                           opt subtitle "HI-TECH Software Omniscient Code Generator (Lite mode) build 49521"
   241  0000                     B0D2 equ 0E28h ;# 
   242                           opt subtitle "HI-TECH Software Omniscient Code Generator (Lite mode) build 49521"
   243  0000                     B0D3 equ 0E29h ;# 
   244                           opt subtitle "HI-TECH Software Omniscient Code Generator (Lite mode) build 49521"
   245  0000                     B0D4 equ 0E2Ah ;# 
   246                           opt subtitle "HI-TECH Software Omniscient Code Generator (Lite mode) build 49521"
   247  0000                     B0D5 equ 0E2Bh ;# 
   248                           opt subtitle "HI-TECH Software Omniscient Code Generator (Lite mode) build 49521"
   249  0000                     B0D6 equ 0E2Ch ;# 
   250                           opt subtitle "HI-TECH Software Omniscient Code Generator (Lite mode) build 49521"
   251  0000                     B0D7 equ 0E2Dh ;# 
   252                           opt subtitle "HI-TECH Software Omniscient Code Generator (Lite mode) build 49521"
   253  0000                     CANSTAT_RO9 equ 0E2Eh ;# 
   254                           opt subtitle "HI-TECH Software Omniscient Code Generator (Lite mode) build 49521"
   255  0000                     CANCON_RO9 equ 0E2Fh ;# 
   256                           opt subtitle "HI-TECH Software Omniscient Code Generator (Lite mode) build 49521"
   257  0000                     B1CON equ 0E30h ;# 
   258                           opt subtitle "HI-TECH Software Omniscient Code Generator (Lite mode) build 49521"
   259  0000                     B1SIDH equ 0E31h ;# 
   260                           opt subtitle "HI-TECH Software Omniscient Code Generator (Lite mode) build 49521"
   261  0000                     B1SIDL equ 0E32h ;# 
   262                           opt subtitle "HI-TECH Software Omniscient Code Generator (Lite mode) build 49521"
   263  0000                     B1EIDH equ 0E33h ;# 
   264                           opt subtitle "HI-TECH Software Omniscient Code Generator (Lite mode) build 49521"
   265  0000                     B1EIDL equ 0E34h ;# 
   266                           opt subtitle "HI-TECH Software Omniscient Code Generator (Lite mode) build 49521"
   267  0000                     B1DLC equ 0E35h ;# 
   268                           opt subtitle "HI-TECH Software Omniscient Code Generator (Lite mode) build 49521"
   269  0000                     B1D0 equ 0E36h ;# 
   270                           opt subtitle "HI-TECH Software Omniscient Code Generator (Lite mode) build 49521"
   271  0000                     B1D1 equ 0E37h ;# 
   272                           opt subtitle "HI-TECH Software Omniscient Code Generator (Lite mode) build 49521"
   273  0000                     B1D2 equ 0E38h ;# 
   274                           opt subtitle "HI-TECH Software Omniscient Code Generator (Lite mode) build 49521"
   275  0000                     B1D3 equ 0E39h ;# 
   276                           opt subtitle "HI-TECH Software Omniscient Code Generator (Lite mode) build 49521"
   277  0000                     B1D4 equ 0E3Ah ;# 
   278                           opt subtitle "HI-TECH Software Omniscient Code Generator (Lite mode) build 49521"
   279  0000                     B1D5 equ 0E3Bh ;# 
   280                           opt subtitle "HI-TECH Software Omniscient Code Generator (Lite mode) build 49521"
   281  0000                     B1D6 equ 0E3Ch ;# 
   282                           opt subtitle "HI-TECH Software Omniscient Code Generator (Lite mode) build 49521"
   283  0000                     B1D7 equ 0E3Dh ;# 
   284                           opt subtitle "HI-TECH Software Omniscient Code Generator (Lite mode) build 49521"
   285  0000                     CANSTAT_RO8 equ 0E3Eh ;# 
   286                           opt subtitle "HI-TECH Software Omniscient Code Generator (Lite mode) build 49521"
   287  0000                     CANCON_RO8 equ 0E3Fh ;# 
   288                           opt subtitle "HI-TECH Software Omniscient Code Generator (Lite mode) build 49521"
   289  0000                     B2CON equ 0E40h ;# 
   290                           opt subtitle "HI-TECH Software Omniscient Code Generator (Lite mode) build 49521"
   291  0000                     B2SIDH equ 0E41h ;# 
   292                           opt subtitle "HI-TECH Software Omniscient Code Generator (Lite mode) build 49521"
   293  0000                     B2SIDL equ 0E42h ;# 
   294                           opt subtitle "HI-TECH Software Omniscient Code Generator (Lite mode) build 49521"
   295  0000                     B2EIDH equ 0E43h ;# 
   296                           opt subtitle "HI-TECH Software Omniscient Code Generator (Lite mode) build 49521"
   297  0000                     B2EIDL equ 0E44h ;# 
   298                           opt subtitle "HI-TECH Software Omniscient Code Generator (Lite mode) build 49521"
   299  0000                     B2DLC equ 0E45h ;# 
   300                           opt subtitle "HI-TECH Software Omniscient Code Generator (Lite mode) build 49521"
   301  0000                     B2D0 equ 0E46h ;# 
   302                           opt subtitle "HI-TECH Software Omniscient Code Generator (Lite mode) build 49521"
   303  0000                     B2D1 equ 0E47h ;# 
   304                           opt subtitle "HI-TECH Software Omniscient Code Generator (Lite mode) build 49521"
   305  0000                     B2D2 equ 0E48h ;# 
   306                           opt subtitle "HI-TECH Software Omniscient Code Generator (Lite mode) build 49521"
   307  0000                     B2D3 equ 0E49h ;# 
   308                           opt subtitle "HI-TECH Software Omniscient Code Generator (Lite mode) build 49521"
   309  0000                     B2D4 equ 0E4Ah ;# 
   310                           opt subtitle "HI-TECH Software Omniscient Code Generator (Lite mode) build 49521"
   311  0000                     B2D5 equ 0E4Bh ;# 
   312                           opt subtitle "HI-TECH Software Omniscient Code Generator (Lite mode) build 49521"
   313  0000                     B2D6 equ 0E4Ch ;# 
   314                           opt subtitle "HI-TECH Software Omniscient Code Generator (Lite mode) build 49521"
   315  0000                     B2D7 equ 0E4Dh ;# 
   316                           opt subtitle "HI-TECH Software Omniscient Code Generator (Lite mode) build 49521"
   317  0000                     CANSTAT_RO7 equ 0E4Eh ;# 
   318                           opt subtitle "HI-TECH Software Omniscient Code Generator (Lite mode) build 49521"
   319  0000                     CANCON_RO7 equ 0E4Fh ;# 
   320                           opt subtitle "HI-TECH Software Omniscient Code Generator (Lite mode) build 49521"
   321  0000                     B3CON equ 0E50h ;# 
   322                           opt subtitle "HI-TECH Software Omniscient Code Generator (Lite mode) build 49521"
   323  0000                     B3SIDH equ 0E51h ;# 
   324                           opt subtitle "HI-TECH Software Omniscient Code Generator (Lite mode) build 49521"
   325  0000                     B3SIDL equ 0E52h ;# 
   326                           opt subtitle "HI-TECH Software Omniscient Code Generator (Lite mode) build 49521"
   327  0000                     B3EIDH equ 0E53h ;# 
   328                           opt subtitle "HI-TECH Software Omniscient Code Generator (Lite mode) build 49521"
   329  0000                     B3EIDL equ 0E54h ;# 
   330                           opt subtitle "HI-TECH Software Omniscient Code Generator (Lite mode) build 49521"
   331  0000                     B3DLC equ 0E55h ;# 
   332                           opt subtitle "HI-TECH Software Omniscient Code Generator (Lite mode) build 49521"
   333  0000                     B3D0 equ 0E56h ;# 
   334                           opt subtitle "HI-TECH Software Omniscient Code Generator (Lite mode) build 49521"
   335  0000                     B3D1 equ 0E57h ;# 
   336                           opt subtitle "HI-TECH Software Omniscient Code Generator (Lite mode) build 49521"
   337  0000                     B3D2 equ 0E58h ;# 
   338                           opt subtitle "HI-TECH Software Omniscient Code Generator (Lite mode) build 49521"
   339  0000                     B3D3 equ 0E59h ;# 
   340                           opt subtitle "HI-TECH Software Omniscient Code Generator (Lite mode) build 49521"
   341  0000                     B3D4 equ 0E5Ah ;# 
   342                           opt subtitle "HI-TECH Software Omniscient Code Generator (Lite mode) build 49521"
   343  0000                     B3D5 equ 0E5Bh ;# 
   344                           opt subtitle "HI-TECH Software Omniscient Code Generator (Lite mode) build 49521"
   345  0000                     B3D6 equ 0E5Ch ;# 
   346                           opt subtitle "HI-TECH Software Omniscient Code Generator (Lite mode) build 49521"
   347  0000                     B3D7 equ 0E5Dh ;# 
   348                           opt subtitle "HI-TECH Software Omniscient Code Generator (Lite mode) build 49521"
   349  0000                     CANSTAT_RO6 equ 0E5Eh ;# 
   350                           opt subtitle "HI-TECH Software Omniscient Code Generator (Lite mode) build 49521"
   351  0000                     CANCON_RO6 equ 0E5Fh ;# 
   352                           opt subtitle "HI-TECH Software Omniscient Code Generator (Lite mode) build 49521"
   353  0000                     B4CON equ 0E60h ;# 
   354                           opt subtitle "HI-TECH Software Omniscient Code Generator (Lite mode) build 49521"
   355  0000                     B4SIDH equ 0E61h ;# 
   356                           opt subtitle "HI-TECH Software Omniscient Code Generator (Lite mode) build 49521"
   357  0000                     B4SIDL equ 0E62h ;# 
   358                           opt subtitle "HI-TECH Software Omniscient Code Generator (Lite mode) build 49521"
   359  0000                     B4EIDH equ 0E63h ;# 
   360                           opt subtitle "HI-TECH Software Omniscient Code Generator (Lite mode) build 49521"
   361  0000                     B4EIDL equ 0E64h ;# 
   362                           opt subtitle "HI-TECH Software Omniscient Code Generator (Lite mode) build 49521"
   363  0000                     B4DLC equ 0E65h ;# 
   364                           opt subtitle "HI-TECH Software Omniscient Code Generator (Lite mode) build 49521"
   365  0000                     B4D0 equ 0E66h ;# 
   366                           opt subtitle "HI-TECH Software Omniscient Code Generator (Lite mode) build 49521"
   367  0000                     B4D1 equ 0E67h ;# 
   368                           opt subtitle "HI-TECH Software Omniscient Code Generator (Lite mode) build 49521"
   369  0000                     B4D2 equ 0E68h ;# 
   370                           opt subtitle "HI-TECH Software Omniscient Code Generator (Lite mode) build 49521"
   371  0000                     B4D3 equ 0E69h ;# 
   372                           opt subtitle "HI-TECH Software Omniscient Code Generator (Lite mode) build 49521"
   373  0000                     B4D4 equ 0E6Ah ;# 
   374                           opt subtitle "HI-TECH Software Omniscient Code Generator (Lite mode) build 49521"
   375  0000                     B4D5 equ 0E6Bh ;# 
   376                           opt subtitle "HI-TECH Software Omniscient Code Generator (Lite mode) build 49521"
   377  0000                     B4D6 equ 0E6Ch ;# 
   378                           opt subtitle "HI-TECH Software Omniscient Code Generator (Lite mode) build 49521"
   379  0000                     B4D7 equ 0E6Dh ;# 
   380                           opt subtitle "HI-TECH Software Omniscient Code Generator (Lite mode) build 49521"
   381  0000                     CANSTAT_RO5 equ 0E6Eh ;# 
   382                           opt subtitle "HI-TECH Software Omniscient Code Generator (Lite mode) build 49521"
   383  0000                     CANCON_RO5 equ 0E6Fh ;# 
   384                           opt subtitle "HI-TECH Software Omniscient Code Generator (Lite mode) build 49521"
   385  0000                     B5CON equ 0E70h ;# 
   386                           opt subtitle "HI-TECH Software Omniscient Code Generator (Lite mode) build 49521"
   387  0000                     B5SIDH equ 0E71h ;# 
   388                           opt subtitle "HI-TECH Software Omniscient Code Generator (Lite mode) build 49521"
   389  0000                     B5SIDL equ 0E72h ;# 
   390                           opt subtitle "HI-TECH Software Omniscient Code Generator (Lite mode) build 49521"
   391  0000                     B5EIDH equ 0E73h ;# 
   392                           opt subtitle "HI-TECH Software Omniscient Code Generator (Lite mode) build 49521"
   393  0000                     B5EIDL equ 0E74h ;# 
   394                           opt subtitle "HI-TECH Software Omniscient Code Generator (Lite mode) build 49521"
   395  0000                     B5DLC equ 0E75h ;# 
   396                           opt subtitle "HI-TECH Software Omniscient Code Generator (Lite mode) build 49521"
   397  0000                     B5D0 equ 0E76h ;# 
   398                           opt subtitle "HI-TECH Software Omniscient Code Generator (Lite mode) build 49521"
   399  0000                     B5D1 equ 0E77h ;# 
   400                           opt subtitle "HI-TECH Software Omniscient Code Generator (Lite mode) build 49521"
   401  0000                     B5D2 equ 0E78h ;# 
   402                           opt subtitle "HI-TECH Software Omniscient Code Generator (Lite mode) build 49521"
   403  0000                     B5D3 equ 0E79h ;# 
   404                           opt subtitle "HI-TECH Software Omniscient Code Generator (Lite mode) build 49521"
   405  0000                     B5D4 equ 0E7Ah ;# 
   406                           opt subtitle "HI-TECH Software Omniscient Code Generator (Lite mode) build 49521"
   407  0000                     B5D5 equ 0E7Bh ;# 
   408                           opt subtitle "HI-TECH Software Omniscient Code Generator (Lite mode) build 49521"
   409  0000                     B5D6 equ 0E7Ch ;# 
   410                           opt subtitle "HI-TECH Software Omniscient Code Generator (Lite mode) build 49521"
   411  0000                     B5D7 equ 0E7Dh ;# 
   412                           opt subtitle "HI-TECH Software Omniscient Code Generator (Lite mode) build 49521"
   413  0000                     CANSTAT_RO4 equ 0E7Eh ;# 
   414                           opt subtitle "HI-TECH Software Omniscient Code Generator (Lite mode) build 49521"
   415  0000                     CANCON_RO4 equ 0E7Fh ;# 
   416                           opt subtitle "HI-TECH Software Omniscient Code Generator (Lite mode) build 49521"
   417  0000                     RXF0SIDH equ 0F00h ;# 
   418                           opt subtitle "HI-TECH Software Omniscient Code Generator (Lite mode) build 49521"
   419  0000                     RXF0SIDL equ 0F01h ;# 
   420                           opt subtitle "HI-TECH Software Omniscient Code Generator (Lite mode) build 49521"
   421  0000                     RXF0EIDH equ 0F02h ;# 
   422                           opt subtitle "HI-TECH Software Omniscient Code Generator (Lite mode) build 49521"
   423  0000                     RXF0EIDL equ 0F03h ;# 
   424                           opt subtitle "HI-TECH Software Omniscient Code Generator (Lite mode) build 49521"
   425  0000                     RXF1SIDH equ 0F04h ;# 
   426                           opt subtitle "HI-TECH Software Omniscient Code Generator (Lite mode) build 49521"
   427  0000                     RXF1SIDL equ 0F05h ;# 
   428                           opt subtitle "HI-TECH Software Omniscient Code Generator (Lite mode) build 49521"
   429  0000                     RXF1EIDH equ 0F06h ;# 
   430                           opt subtitle "HI-TECH Software Omniscient Code Generator (Lite mode) build 49521"
   431  0000                     RXF1EIDL equ 0F07h ;# 
   432                           opt subtitle "HI-TECH Software Omniscient Code Generator (Lite mode) build 49521"
   433  0000                     RXF2SIDH equ 0F08h ;# 
   434                           opt subtitle "HI-TECH Software Omniscient Code Generator (Lite mode) build 49521"
   435  0000                     RXF2SIDL equ 0F09h ;# 
   436                           opt subtitle "HI-TECH Software Omniscient Code Generator (Lite mode) build 49521"
   437  0000                     RXF2EIDH equ 0F0Ah ;# 
   438                           opt subtitle "HI-TECH Software Omniscient Code Generator (Lite mode) build 49521"
   439  0000                     RXF2EIDL equ 0F0Bh ;# 
   440                           opt subtitle "HI-TECH Software Omniscient Code Generator (Lite mode) build 49521"
   441  0000                     RXF3SIDH equ 0F0Ch ;# 
   442                           opt subtitle "HI-TECH Software Omniscient Code Generator (Lite mode) build 49521"
   443  0000                     RXF3SIDL equ 0F0Dh ;# 
   444                           opt subtitle "HI-TECH Software Omniscient Code Generator (Lite mode) build 49521"
   445  0000                     RXF3EIDH equ 0F0Eh ;# 
   446                           opt subtitle "HI-TECH Software Omniscient Code Generator (Lite mode) build 49521"
   447  0000                     RXF3EIDL equ 0F0Fh ;# 
   448                           opt subtitle "HI-TECH Software Omniscient Code Generator (Lite mode) build 49521"
   449  0000                     RXF4SIDH equ 0F10h ;# 
   450                           opt subtitle "HI-TECH Software Omniscient Code Generator (Lite mode) build 49521"
   451  0000                     RXF4SIDL equ 0F11h ;# 
   452                           opt subtitle "HI-TECH Software Omniscient Code Generator (Lite mode) build 49521"
   453  0000                     RXF4EIDH equ 0F12h ;# 
   454                           opt subtitle "HI-TECH Software Omniscient Code Generator (Lite mode) build 49521"
   455  0000                     RXF4EIDL equ 0F13h ;# 
   456                           opt subtitle "HI-TECH Software Omniscient Code Generator (Lite mode) build 49521"
   457  0000                     RXF5SIDH equ 0F14h ;# 
   458                           opt subtitle "HI-TECH Software Omniscient Code Generator (Lite mode) build 49521"
   459  0000                     RXF5SIDL equ 0F15h ;# 
   460                           opt subtitle "HI-TECH Software Omniscient Code Generator (Lite mode) build 49521"
   461  0000                     RXF5EIDH equ 0F16h ;# 
   462                           opt subtitle "HI-TECH Software Omniscient Code Generator (Lite mode) build 49521"
   463  0000                     RXF5EIDL equ 0F17h ;# 
   464                           opt subtitle "HI-TECH Software Omniscient Code Generator (Lite mode) build 49521"
   465  0000                     RXM0SIDH equ 0F18h ;# 
   466                           opt subtitle "HI-TECH Software Omniscient Code Generator (Lite mode) build 49521"
   467  0000                     RXM0SIDL equ 0F19h ;# 
   468                           opt subtitle "HI-TECH Software Omniscient Code Generator (Lite mode) build 49521"
   469  0000                     RXM0EIDH equ 0F1Ah ;# 
   470                           opt subtitle "HI-TECH Software Omniscient Code Generator (Lite mode) build 49521"
   471  0000                     RXM0EIDL equ 0F1Bh ;# 
   472                           opt subtitle "HI-TECH Software Omniscient Code Generator (Lite mode) build 49521"
   473  0000                     RXM1SIDH equ 0F1Ch ;# 
   474                           opt subtitle "HI-TECH Software Omniscient Code Generator (Lite mode) build 49521"
   475  0000                     RXM1SIDL equ 0F1Dh ;# 
   476                           opt subtitle "HI-TECH Software Omniscient Code Generator (Lite mode) build 49521"
   477  0000                     RXM1EIDH equ 0F1Eh ;# 
   478                           opt subtitle "HI-TECH Software Omniscient Code Generator (Lite mode) build 49521"
   479  0000                     RXM1EIDL equ 0F1Fh ;# 
   480                           opt subtitle "HI-TECH Software Omniscient Code Generator (Lite mode) build 49521"
   481  0000                     TXB2CON equ 0F20h ;# 
   482                           opt subtitle "HI-TECH Software Omniscient Code Generator (Lite mode) build 49521"
   483  0000                     TXB2SIDH equ 0F21h ;# 
   484                           opt subtitle "HI-TECH Software Omniscient Code Generator (Lite mode) build 49521"
   485  0000                     TXB2SIDL equ 0F22h ;# 
   486                           opt subtitle "HI-TECH Software Omniscient Code Generator (Lite mode) build 49521"
   487  0000                     TXB2EIDH equ 0F23h ;# 
   488                           opt subtitle "HI-TECH Software Omniscient Code Generator (Lite mode) build 49521"
   489  0000                     TXB2EIDL equ 0F24h ;# 
   490                           opt subtitle "HI-TECH Software Omniscient Code Generator (Lite mode) build 49521"
   491  0000                     TXB2DLC equ 0F25h ;# 
   492                           opt subtitle "HI-TECH Software Omniscient Code Generator (Lite mode) build 49521"
   493  0000                     TXB2D0 equ 0F26h ;# 
   494                           opt subtitle "HI-TECH Software Omniscient Code Generator (Lite mode) build 49521"
   495  0000                     TXB2D1 equ 0F27h ;# 
   496                           opt subtitle "HI-TECH Software Omniscient Code Generator (Lite mode) build 49521"
   497  0000                     TXB2D2 equ 0F28h ;# 
   498                           opt subtitle "HI-TECH Software Omniscient Code Generator (Lite mode) build 49521"
   499  0000                     TXB2D3 equ 0F29h ;# 
   500                           opt subtitle "HI-TECH Software Omniscient Code Generator (Lite mode) build 49521"
   501  0000                     TXB2D4 equ 0F2Ah ;# 
   502                           opt subtitle "HI-TECH Software Omniscient Code Generator (Lite mode) build 49521"
   503  0000                     TXB2D5 equ 0F2Bh ;# 
   504                           opt subtitle "HI-TECH Software Omniscient Code Generator (Lite mode) build 49521"
   505  0000                     TXB2D6 equ 0F2Ch ;# 
   506                           opt subtitle "HI-TECH Software Omniscient Code Generator (Lite mode) build 49521"
   507  0000                     TXB2D7 equ 0F2Dh ;# 
   508                           opt subtitle "HI-TECH Software Omniscient Code Generator (Lite mode) build 49521"
   509  0000                     CANSTAT_RO3 equ 0F2Eh ;# 
   510                           opt subtitle "HI-TECH Software Omniscient Code Generator (Lite mode) build 49521"
   511  0000                     CANCON_RO3 equ 0F2Fh ;# 
   512                           opt subtitle "HI-TECH Software Omniscient Code Generator (Lite mode) build 49521"
   513  0000                     TXB1CON equ 0F30h ;# 
   514                           opt subtitle "HI-TECH Software Omniscient Code Generator (Lite mode) build 49521"
   515  0000                     TXB1SIDH equ 0F31h ;# 
   516                           opt subtitle "HI-TECH Software Omniscient Code Generator (Lite mode) build 49521"
   517  0000                     TXB1SIDL equ 0F32h ;# 
   518                           opt subtitle "HI-TECH Software Omniscient Code Generator (Lite mode) build 49521"
   519  0000                     TXB1EIDH equ 0F33h ;# 
   520                           opt subtitle "HI-TECH Software Omniscient Code Generator (Lite mode) build 49521"
   521  0000                     TXB1EIDL equ 0F34h ;# 
   522                           opt subtitle "HI-TECH Software Omniscient Code Generator (Lite mode) build 49521"
   523  0000                     TXB1DLC equ 0F35h ;# 
   524                           opt subtitle "HI-TECH Software Omniscient Code Generator (Lite mode) build 49521"
   525  0000                     TXB1D0 equ 0F36h ;# 
   526                           opt subtitle "HI-TECH Software Omniscient Code Generator (Lite mode) build 49521"
   527  0000                     TXB1D1 equ 0F37h ;# 
   528                           opt subtitle "HI-TECH Software Omniscient Code Generator (Lite mode) build 49521"
   529  0000                     TXB1D2 equ 0F38h ;# 
   530                           opt subtitle "HI-TECH Software Omniscient Code Generator (Lite mode) build 49521"
   531  0000                     TXB1D3 equ 0F39h ;# 
   532                           opt subtitle "HI-TECH Software Omniscient Code Generator (Lite mode) build 49521"
   533  0000                     TXB1D4 equ 0F3Ah ;# 
   534                           opt subtitle "HI-TECH Software Omniscient Code Generator (Lite mode) build 49521"
   535  0000                     TXB1D5 equ 0F3Bh ;# 
   536                           opt subtitle "HI-TECH Software Omniscient Code Generator (Lite mode) build 49521"
   537  0000                     TXB1D6 equ 0F3Ch ;# 
   538                           opt subtitle "HI-TECH Software Omniscient Code Generator (Lite mode) build 49521"
   539  0000                     TXB1D7 equ 0F3Dh ;# 
   540                           opt subtitle "HI-TECH Software Omniscient Code Generator (Lite mode) build 49521"
   541  0000                     CANSTAT_RO2 equ 0F3Eh ;# 
   542                           opt subtitle "HI-TECH Software Omniscient Code Generator (Lite mode) build 49521"
   543  0000                     CANCON_RO2 equ 0F3Fh ;# 
   544                           opt subtitle "HI-TECH Software Omniscient Code Generator (Lite mode) build 49521"
   545  0000                     TXB0CON equ 0F40h ;# 
   546                           opt subtitle "HI-TECH Software Omniscient Code Generator (Lite mode) build 49521"
   547  0000                     TXB0SIDH equ 0F41h ;# 
   548                           opt subtitle "HI-TECH Software Omniscient Code Generator (Lite mode) build 49521"
   549  0000                     TXB0SIDL equ 0F42h ;# 
   550                           opt subtitle "HI-TECH Software Omniscient Code Generator (Lite mode) build 49521"
   551  0000                     TXB0EIDH equ 0F43h ;# 
   552                           opt subtitle "HI-TECH Software Omniscient Code Generator (Lite mode) build 49521"
   553  0000                     TXB0EIDL equ 0F44h ;# 
   554                           opt subtitle "HI-TECH Software Omniscient Code Generator (Lite mode) build 49521"
   555  0000                     TXB0DLC equ 0F45h ;# 
   556                           opt subtitle "HI-TECH Software Omniscient Code Generator (Lite mode) build 49521"
   557  0000                     TXB0D0 equ 0F46h ;# 
   558                           opt subtitle "HI-TECH Software Omniscient Code Generator (Lite mode) build 49521"
   559  0000                     TXB0D1 equ 0F47h ;# 
   560                           opt subtitle "HI-TECH Software Omniscient Code Generator (Lite mode) build 49521"
   561  0000                     TXB0D2 equ 0F48h ;# 
   562                           opt subtitle "HI-TECH Software Omniscient Code Generator (Lite mode) build 49521"
   563  0000                     TXB0D3 equ 0F49h ;# 
   564                           opt subtitle "HI-TECH Software Omniscient Code Generator (Lite mode) build 49521"
   565  0000                     TXB0D4 equ 0F4Ah ;# 
   566                           opt subtitle "HI-TECH Software Omniscient Code Generator (Lite mode) build 49521"
   567  0000                     TXB0D5 equ 0F4Bh ;# 
   568                           opt subtitle "HI-TECH Software Omniscient Code Generator (Lite mode) build 49521"
   569  0000                     TXB0D6 equ 0F4Ch ;# 
   570                           opt subtitle "HI-TECH Software Omniscient Code Generator (Lite mode) build 49521"
   571  0000                     TXB0D7 equ 0F4Dh ;# 
   572                           opt subtitle "HI-TECH Software Omniscient Code Generator (Lite mode) build 49521"
   573  0000                     CANSTAT_RO1 equ 0F4Eh ;# 
   574                           opt subtitle "HI-TECH Software Omniscient Code Generator (Lite mode) build 49521"
   575  0000                     CANCON_RO1 equ 0F4Fh ;# 
   576                           opt subtitle "HI-TECH Software Omniscient Code Generator (Lite mode) build 49521"
   577  0000                     RXB1CON equ 0F50h ;# 
   578                           opt subtitle "HI-TECH Software Omniscient Code Generator (Lite mode) build 49521"
   579  0000                     RXB1SIDH equ 0F51h ;# 
   580                           opt subtitle "HI-TECH Software Omniscient Code Generator (Lite mode) build 49521"
   581  0000                     RXB1SIDL equ 0F52h ;# 
   582                           opt subtitle "HI-TECH Software Omniscient Code Generator (Lite mode) build 49521"
   583  0000                     RXB1EIDH equ 0F53h ;# 
   584                           opt subtitle "HI-TECH Software Omniscient Code Generator (Lite mode) build 49521"
   585  0000                     RXB1EIDL equ 0F54h ;# 
   586                           opt subtitle "HI-TECH Software Omniscient Code Generator (Lite mode) build 49521"
   587  0000                     RXB1DLC equ 0F55h ;# 
   588                           opt subtitle "HI-TECH Software Omniscient Code Generator (Lite mode) build 49521"
   589  0000                     RXB1D0 equ 0F56h ;# 
   590                           opt subtitle "HI-TECH Software Omniscient Code Generator (Lite mode) build 49521"
   591  0000                     RXB1D1 equ 0F57h ;# 
   592                           opt subtitle "HI-TECH Software Omniscient Code Generator (Lite mode) build 49521"
   593  0000                     RXB1D2 equ 0F58h ;# 
   594                           opt subtitle "HI-TECH Software Omniscient Code Generator (Lite mode) build 49521"
   595  0000                     RXB1D3 equ 0F59h ;# 
   596                           opt subtitle "HI-TECH Software Omniscient Code Generator (Lite mode) build 49521"
   597  0000                     RXB1D4 equ 0F5Ah ;# 
   598                           opt subtitle "HI-TECH Software Omniscient Code Generator (Lite mode) build 49521"
   599  0000                     RXB1D5 equ 0F5Bh ;# 
   600                           opt subtitle "HI-TECH Software Omniscient Code Generator (Lite mode) build 49521"
   601  0000                     RXB1D6 equ 0F5Ch ;# 
   602                           opt subtitle "HI-TECH Software Omniscient Code Generator (Lite mode) build 49521"
   603  0000                     RXB1D7 equ 0F5Dh ;# 
   604                           opt subtitle "HI-TECH Software Omniscient Code Generator (Lite mode) build 49521"
   605  0000                     CANSTAT_RO0 equ 0F5Eh ;# 
   606                           opt subtitle "HI-TECH Software Omniscient Code Generator (Lite mode) build 49521"
   607  0000                     CANCON_RO0 equ 0F5Fh ;# 
   608                           opt subtitle "HI-TECH Software Omniscient Code Generator (Lite mode) build 49521"
   609  0000                     RXB0CON equ 0F60h ;# 
   610                           opt subtitle "HI-TECH Software Omniscient Code Generator (Lite mode) build 49521"
   611  0000                     RXB0SIDH equ 0F61h ;# 
   612                           opt subtitle "HI-TECH Software Omniscient Code Generator (Lite mode) build 49521"
   613  0000                     RXB0SIDL equ 0F62h ;# 
   614                           opt subtitle "HI-TECH Software Omniscient Code Generator (Lite mode) build 49521"
   615  0000                     RXB0EIDH equ 0F63h ;# 
   616                           opt subtitle "HI-TECH Software Omniscient Code Generator (Lite mode) build 49521"
   617  0000                     RXB0EIDL equ 0F64h ;# 
   618                           opt subtitle "HI-TECH Software Omniscient Code Generator (Lite mode) build 49521"
   619  0000                     RXB0DLC equ 0F65h ;# 
   620                           opt subtitle "HI-TECH Software Omniscient Code Generator (Lite mode) build 49521"
   621  0000                     RXB0D0 equ 0F66h ;# 
   622                           opt subtitle "HI-TECH Software Omniscient Code Generator (Lite mode) build 49521"
   623  0000                     RXB0D1 equ 0F67h ;# 
   624                           opt subtitle "HI-TECH Software Omniscient Code Generator (Lite mode) build 49521"
   625  0000                     RXB0D2 equ 0F68h ;# 
   626                           opt subtitle "HI-TECH Software Omniscient Code Generator (Lite mode) build 49521"
   627  0000                     RXB0D3 equ 0F69h ;# 
   628                           opt subtitle "HI-TECH Software Omniscient Code Generator (Lite mode) build 49521"
   629  0000                     RXB0D4 equ 0F6Ah ;# 
   630                           opt subtitle "HI-TECH Software Omniscient Code Generator (Lite mode) build 49521"
   631  0000                     RXB0D5 equ 0F6Bh ;# 
   632                           opt subtitle "HI-TECH Software Omniscient Code Generator (Lite mode) build 49521"
   633  0000                     RXB0D6 equ 0F6Ch ;# 
   634                           opt subtitle "HI-TECH Software Omniscient Code Generator (Lite mode) build 49521"
   635  0000                     RXB0D7 equ 0F6Dh ;# 
   636                           opt subtitle "HI-TECH Software Omniscient Code Generator (Lite mode) build 49521"
   637  0000                     CANSTAT equ 0F6Eh ;# 
   638                           opt subtitle "HI-TECH Software Omniscient Code Generator (Lite mode) build 49521"
   639  0000                     CANCON equ 0F6Fh ;# 
   640                           opt subtitle "HI-TECH Software Omniscient Code Generator (Lite mode) build 49521"
   641  0000                     BRGCON1 equ 0F70h ;# 
   642                           opt subtitle "HI-TECH Software Omniscient Code Generator (Lite mode) build 49521"
   643  0000                     BRGCON2 equ 0F71h ;# 
   644                           opt subtitle "HI-TECH Software Omniscient Code Generator (Lite mode) build 49521"
   645  0000                     BRGCON3 equ 0F72h ;# 
   646                           opt subtitle "HI-TECH Software Omniscient Code Generator (Lite mode) build 49521"
   647  0000                     CIOCON equ 0F73h ;# 
   648                           opt subtitle "HI-TECH Software Omniscient Code Generator (Lite mode) build 49521"
   649  0000                     COMSTAT equ 0F74h ;# 
   650                           opt subtitle "HI-TECH Software Omniscient Code Generator (Lite mode) build 49521"
   651  0000                     RXERRCNT equ 0F75h ;# 
   652                           opt subtitle "HI-TECH Software Omniscient Code Generator (Lite mode) build 49521"
   653  0000                     TXERRCNT equ 0F76h ;# 
   654                           opt subtitle "HI-TECH Software Omniscient Code Generator (Lite mode) build 49521"
   655  0000                     ECANCON equ 0F77h ;# 
   656                           opt subtitle "HI-TECH Software Omniscient Code Generator (Lite mode) build 49521"
   657  0000                     PORTA equ 0F80h ;# 
   658                           opt subtitle "HI-TECH Software Omniscient Code Generator (Lite mode) build 49521"
   659  0000                     PORTB equ 0F81h ;# 
   660                           opt subtitle "HI-TECH Software Omniscient Code Generator (Lite mode) build 49521"
   661  0000                     PORTC equ 0F82h ;# 
   662                           opt subtitle "HI-TECH Software Omniscient Code Generator (Lite mode) build 49521"
   663  0000                     PORTE equ 0F84h ;# 
   664                           opt subtitle "HI-TECH Software Omniscient Code Generator (Lite mode) build 49521"
   665  0000                     LATA equ 0F89h ;# 
   666                           opt subtitle "HI-TECH Software Omniscient Code Generator (Lite mode) build 49521"
   667  0000                     LATB equ 0F8Ah ;# 
   668                           opt subtitle "HI-TECH Software Omniscient Code Generator (Lite mode) build 49521"
   669  0000                     LATC equ 0F8Bh ;# 
   670                           opt subtitle "HI-TECH Software Omniscient Code Generator (Lite mode) build 49521"
   671  0000                     TRISA equ 0F92h ;# 
   672                           opt subtitle "HI-TECH Software Omniscient Code Generator (Lite mode) build 49521"
   673  0000                     DDRA equ 0F92h ;# 
   674                           opt subtitle "HI-TECH Software Omniscient Code Generator (Lite mode) build 49521"
   675  0000                     TRISB equ 0F93h ;# 
   676                           opt subtitle "HI-TECH Software Omniscient Code Generator (Lite mode) build 49521"
   677  0000                     DDRB equ 0F93h ;# 
   678                           opt subtitle "HI-TECH Software Omniscient Code Generator (Lite mode) build 49521"
   679  0000                     TRISC equ 0F94h ;# 
   680                           opt subtitle "HI-TECH Software Omniscient Code Generator (Lite mode) build 49521"
   681  0000                     DDRC equ 0F94h ;# 
   682                           opt subtitle "HI-TECH Software Omniscient Code Generator (Lite mode) build 49521"
   683  0000                     OSCTUNE equ 0F9Bh ;# 
   684                           opt subtitle "HI-TECH Software Omniscient Code Generator (Lite mode) build 49521"
   685  0000                     PIE1 equ 0F9Dh ;# 
   686                           opt subtitle "HI-TECH Software Omniscient Code Generator (Lite mode) build 49521"
   687  0000                     PIR1 equ 0F9Eh ;# 
   688                           opt subtitle "HI-TECH Software Omniscient Code Generator (Lite mode) build 49521"
   689  0000                     IPR1 equ 0F9Fh ;# 
   690                           opt subtitle "HI-TECH Software Omniscient Code Generator (Lite mode) build 49521"
   691  0000                     PIE2 equ 0FA0h ;# 
   692                           opt subtitle "HI-TECH Software Omniscient Code Generator (Lite mode) build 49521"
   693  0000                     PIR2 equ 0FA1h ;# 
   694                           opt subtitle "HI-TECH Software Omniscient Code Generator (Lite mode) build 49521"
   695  0000                     IPR2 equ 0FA2h ;# 
   696                           opt subtitle "HI-TECH Software Omniscient Code Generator (Lite mode) build 49521"
   697  0000                     PIE3 equ 0FA3h ;# 
   698                           opt subtitle "HI-TECH Software Omniscient Code Generator (Lite mode) build 49521"
   699  0000                     PIR3 equ 0FA4h ;# 
   700                           opt subtitle "HI-TECH Software Omniscient Code Generator (Lite mode) build 49521"
   701  0000                     IPR3 equ 0FA5h ;# 
   702                           opt subtitle "HI-TECH Software Omniscient Code Generator (Lite mode) build 49521"
   703  0000                     EECON1 equ 0FA6h ;# 
   704                           opt subtitle "HI-TECH Software Omniscient Code Generator (Lite mode) build 49521"
   705  0000                     EECON2 equ 0FA7h ;# 
   706                           opt subtitle "HI-TECH Software Omniscient Code Generator (Lite mode) build 49521"
   707  0000                     EEDATA equ 0FA8h ;# 
   708                           opt subtitle "HI-TECH Software Omniscient Code Generator (Lite mode) build 49521"
   709  0000                     EEADR equ 0FA9h ;# 
   710                           opt subtitle "HI-TECH Software Omniscient Code Generator (Lite mode) build 49521"
   711  0000                     RCSTA equ 0FABh ;# 
   712                           opt subtitle "HI-TECH Software Omniscient Code Generator (Lite mode) build 49521"
   713  0000                     RCSTA1 equ 0FABh ;# 
   714                           opt subtitle "HI-TECH Software Omniscient Code Generator (Lite mode) build 49521"
   715  0000                     TXSTA equ 0FACh ;# 
   716                           opt subtitle "HI-TECH Software Omniscient Code Generator (Lite mode) build 49521"
   717  0000                     TXSTA1 equ 0FACh ;# 
   718                           opt subtitle "HI-TECH Software Omniscient Code Generator (Lite mode) build 49521"
   719  0000                     TXREG equ 0FADh ;# 
   720                           opt subtitle "HI-TECH Software Omniscient Code Generator (Lite mode) build 49521"
   721  0000                     TXREG1 equ 0FADh ;# 
   722                           opt subtitle "HI-TECH Software Omniscient Code Generator (Lite mode) build 49521"
   723  0000                     RCREG equ 0FAEh ;# 
   724                           opt subtitle "HI-TECH Software Omniscient Code Generator (Lite mode) build 49521"
   725  0000                     RCREG1 equ 0FAEh ;# 
   726                           opt subtitle "HI-TECH Software Omniscient Code Generator (Lite mode) build 49521"
   727  0000                     SPBRG equ 0FAFh ;# 
   728                           opt subtitle "HI-TECH Software Omniscient Code Generator (Lite mode) build 49521"
   729  0000                     SPBRG1 equ 0FAFh ;# 
   730                           opt subtitle "HI-TECH Software Omniscient Code Generator (Lite mode) build 49521"
   731  0000                     SPBRGH equ 0FB0h ;# 
   732                           opt subtitle "HI-TECH Software Omniscient Code Generator (Lite mode) build 49521"
   733  0000                     T3CON equ 0FB1h ;# 
   734                           opt subtitle "HI-TECH Software Omniscient Code Generator (Lite mode) build 49521"
   735  0000                     TMR3 equ 0FB2h ;# 
   736                           opt subtitle "HI-TECH Software Omniscient Code Generator (Lite mode) build 49521"
   737  0000                     TMR3L equ 0FB2h ;# 
   738                           opt subtitle "HI-TECH Software Omniscient Code Generator (Lite mode) build 49521"
   739  0000                     TMR3H equ 0FB3h ;# 
   740                           opt subtitle "HI-TECH Software Omniscient Code Generator (Lite mode) build 49521"
   741  0000                     ECCP1DEL equ 0FB7h ;# 
   742                           opt subtitle "HI-TECH Software Omniscient Code Generator (Lite mode) build 49521"
   743  0000                     BAUDCON equ 0FB8h ;# 
   744                           opt subtitle "HI-TECH Software Omniscient Code Generator (Lite mode) build 49521"
   745  0000                     BAUDCTL equ 0FB8h ;# 
   746                           opt subtitle "HI-TECH Software Omniscient Code Generator (Lite mode) build 49521"
   747  0000                     CCP1CON equ 0FBDh ;# 
   748                           opt subtitle "HI-TECH Software Omniscient Code Generator (Lite mode) build 49521"
   749  0000                     CCPR1 equ 0FBEh ;# 
   750                           opt subtitle "HI-TECH Software Omniscient Code Generator (Lite mode) build 49521"
   751  0000                     CCPR1L equ 0FBEh ;# 
   752                           opt subtitle "HI-TECH Software Omniscient Code Generator (Lite mode) build 49521"
   753  0000                     CCPR1H equ 0FBFh ;# 
   754                           opt subtitle "HI-TECH Software Omniscient Code Generator (Lite mode) build 49521"
   755  0000                     ADCON2 equ 0FC0h ;# 
   756                           opt subtitle "HI-TECH Software Omniscient Code Generator (Lite mode) build 49521"
   757  0000                     ADCON1 equ 0FC1h ;# 
   758                           opt subtitle "HI-TECH Software Omniscient Code Generator (Lite mode) build 49521"
   759  0000                     ADCON0 equ 0FC2h ;# 
   760                           opt subtitle "HI-TECH Software Omniscient Code Generator (Lite mode) build 49521"
   761  0000                     ADRES equ 0FC3h ;# 
   762                           opt subtitle "HI-TECH Software Omniscient Code Generator (Lite mode) build 49521"
   763  0000                     ADRESL equ 0FC3h ;# 
   764                           opt subtitle "HI-TECH Software Omniscient Code Generator (Lite mode) build 49521"
   765  0000                     ADRESH equ 0FC4h ;# 
   766                           opt subtitle "HI-TECH Software Omniscient Code Generator (Lite mode) build 49521"
   767  0000                     SSPCON2 equ 0FC5h ;# 
   768                           opt subtitle "HI-TECH Software Omniscient Code Generator (Lite mode) build 49521"
   769  0000                     SSPCON1 equ 0FC6h ;# 
   770                           opt subtitle "HI-TECH Software Omniscient Code Generator (Lite mode) build 49521"
   771  0000                     SSPSTAT equ 0FC7h ;# 
   772                           opt subtitle "HI-TECH Software Omniscient Code Generator (Lite mode) build 49521"
   773  0000                     SSPADD equ 0FC8h ;# 
   774                           opt subtitle "HI-TECH Software Omniscient Code Generator (Lite mode) build 49521"
   775  0000                     SSPBUF equ 0FC9h ;# 
   776                           opt subtitle "HI-TECH Software Omniscient Code Generator (Lite mode) build 49521"
   777  0000                     T2CON equ 0FCAh ;# 
   778                           opt subtitle "HI-TECH Software Omniscient Code Generator (Lite mode) build 49521"
   779  0000                     PR2 equ 0FCBh ;# 
   780                           opt subtitle "HI-TECH Software Omniscient Code Generator (Lite mode) build 49521"
   781  0000                     MEMCON equ 0FCBh ;# 
   782                           opt subtitle "HI-TECH Software Omniscient Code Generator (Lite mode) build 49521"
   783  0000                     TMR2 equ 0FCCh ;# 
   784                           opt subtitle "HI-TECH Software Omniscient Code Generator (Lite mode) build 49521"
   785  0000                     T1CON equ 0FCDh ;# 
   786                           opt subtitle "HI-TECH Software Omniscient Code Generator (Lite mode) build 49521"
   787  0000                     TMR1 equ 0FCEh ;# 
   788                           opt subtitle "HI-TECH Software Omniscient Code Generator (Lite mode) build 49521"
   789  0000                     TMR1L equ 0FCEh ;# 
   790                           opt subtitle "HI-TECH Software Omniscient Code Generator (Lite mode) build 49521"
   791  0000                     TMR1H equ 0FCFh ;# 
   792                           opt subtitle "HI-TECH Software Omniscient Code Generator (Lite mode) build 49521"
   793  0000                     RCON equ 0FD0h ;# 
   794                           opt subtitle "HI-TECH Software Omniscient Code Generator (Lite mode) build 49521"
   795  0000                     WDTCON equ 0FD1h ;# 
   796                           opt subtitle "HI-TECH Software Omniscient Code Generator (Lite mode) build 49521"
   797  0000                     HLVDCON equ 0FD2h ;# 
   798                           opt subtitle "HI-TECH Software Omniscient Code Generator (Lite mode) build 49521"
   799  0000                     LVDCON equ 0FD2h ;# 
   800                           opt subtitle "HI-TECH Software Omniscient Code Generator (Lite mode) build 49521"
   801  0000                     OSCCON equ 0FD3h ;# 
   802                           opt subtitle "HI-TECH Software Omniscient Code Generator (Lite mode) build 49521"
   803  0000                     T0CON equ 0FD5h ;# 
   804                           opt subtitle "HI-TECH Software Omniscient Code Generator (Lite mode) build 49521"
   805  0000                     TMR0 equ 0FD6h ;# 
   806                           opt subtitle "HI-TECH Software Omniscient Code Generator (Lite mode) build 49521"
   807  0000                     TMR0L equ 0FD6h ;# 
   808                           opt subtitle "HI-TECH Software Omniscient Code Generator (Lite mode) build 49521"
   809  0000                     TMR0H equ 0FD7h ;# 
   810                           opt subtitle "HI-TECH Software Omniscient Code Generator (Lite mode) build 49521"
   811  0000                     STATUS equ 0FD8h ;# 
   812                           opt subtitle "HI-TECH Software Omniscient Code Generator (Lite mode) build 49521"
   813  0000                     FSR2 equ 0FD9h ;# 
   814                           opt subtitle "HI-TECH Software Omniscient Code Generator (Lite mode) build 49521"
   815  0000                     FSR2L equ 0FD9h ;# 
   816                           opt subtitle "HI-TECH Software Omniscient Code Generator (Lite mode) build 49521"
   817  0000                     FSR2H equ 0FDAh ;# 
   818                           opt subtitle "HI-TECH Software Omniscient Code Generator (Lite mode) build 49521"
   819  0000                     PLUSW2 equ 0FDBh ;# 
   820                           opt subtitle "HI-TECH Software Omniscient Code Generator (Lite mode) build 49521"
   821  0000                     PREINC2 equ 0FDCh ;# 
   822                           opt subtitle "HI-TECH Software Omniscient Code Generator (Lite mode) build 49521"
   823  0000                     POSTDEC2 equ 0FDDh ;# 
   824                           opt subtitle "HI-TECH Software Omniscient Code Generator (Lite mode) build 49521"
   825  0000                     POSTINC2 equ 0FDEh ;# 
   826                           opt subtitle "HI-TECH Software Omniscient Code Generator (Lite mode) build 49521"
   827  0000                     INDF2 equ 0FDFh ;# 
   828                           opt subtitle "HI-TECH Software Omniscient Code Generator (Lite mode) build 49521"
   829  0000                     BSR equ 0FE0h ;# 
   830                           opt subtitle "HI-TECH Software Omniscient Code Generator (Lite mode) build 49521"
   831  0000                     FSR1 equ 0FE1h ;# 
   832                           opt subtitle "HI-TECH Software Omniscient Code Generator (Lite mode) build 49521"
   833  0000                     FSR1L equ 0FE1h ;# 
   834                           opt subtitle "HI-TECH Software Omniscient Code Generator (Lite mode) build 49521"
   835  0000                     FSR1H equ 0FE2h ;# 
   836                           opt subtitle "HI-TECH Software Omniscient Code Generator (Lite mode) build 49521"
   837  0000                     PLUSW1 equ 0FE3h ;# 
   838                           opt subtitle "HI-TECH Software Omniscient Code Generator (Lite mode) build 49521"
   839  0000                     PREINC1 equ 0FE4h ;# 
   840                           opt subtitle "HI-TECH Software Omniscient Code Generator (Lite mode) build 49521"
   841  0000                     POSTDEC1 equ 0FE5h ;# 
   842                           opt subtitle "HI-TECH Software Omniscient Code Generator (Lite mode) build 49521"
   843  0000                     POSTINC1 equ 0FE6h ;# 
   844                           opt subtitle "HI-TECH Software Omniscient Code Generator (Lite mode) build 49521"
   845  0000                     INDF1 equ 0FE7h ;# 
   846                           opt subtitle "HI-TECH Software Omniscient Code Generator (Lite mode) build 49521"
   847  0000                     WREG equ 0FE8h ;# 
   848                           opt subtitle "HI-TECH Software Omniscient Code Generator (Lite mode) build 49521"
   849  0000                     FSR0 equ 0FE9h ;# 
   850                           opt subtitle "HI-TECH Software Omniscient Code Generator (Lite mode) build 49521"
   851  0000                     FSR0L equ 0FE9h ;# 
   852                           opt subtitle "HI-TECH Software Omniscient Code Generator (Lite mode) build 49521"
   853  0000                     FSR0H equ 0FEAh ;# 
   854                           opt subtitle "HI-TECH Software Omniscient Code Generator (Lite mode) build 49521"
   855  0000                     PLUSW0 equ 0FEBh ;# 
   856                           opt subtitle "HI-TECH Software Omniscient Code Generator (Lite mode) build 49521"
   857  0000                     PREINC0 equ 0FECh ;# 
   858                           opt subtitle "HI-TECH Software Omniscient Code Generator (Lite mode) build 49521"
   859  0000                     POSTDEC0 equ 0FEDh ;# 
   860                           opt subtitle "HI-TECH Software Omniscient Code Generator (Lite mode) build 49521"
   861  0000                     POSTINC0 equ 0FEEh ;# 
   862                           opt subtitle "HI-TECH Software Omniscient Code Generator (Lite mode) build 49521"
   863  0000                     INDF0 equ 0FEFh ;# 
   864                           opt subtitle "HI-TECH Software Omniscient Code Generator (Lite mode) build 49521"
   865  0000                     INTCON3 equ 0FF0h ;# 
   866                           opt subtitle "HI-TECH Software Omniscient Code Generator (Lite mode) build 49521"
   867  0000                     INTCON2 equ 0FF1h ;# 
   868                           opt subtitle "HI-TECH Software Omniscient Code Generator (Lite mode) build 49521"
   869  0000                     INTCON equ 0FF2h ;# 
   870                           opt subtitle "HI-TECH Software Omniscient Code Generator (Lite mode) build 49521"
   871  0000                     PROD equ 0FF3h ;# 
   872                           opt subtitle "HI-TECH Software Omniscient Code Generator (Lite mode) build 49521"
   873  0000                     PRODL equ 0FF3h ;# 
   874                           opt subtitle "HI-TECH Software Omniscient Code Generator (Lite mode) build 49521"
   875  0000                     PRODH equ 0FF4h ;# 
   876                           opt subtitle "HI-TECH Software Omniscient Code Generator (Lite mode) build 49521"
   877  0000                     TABLAT equ 0FF5h ;# 
   878                           opt subtitle "HI-TECH Software Omniscient Code Generator (Lite mode) build 49521"
   879  0000                     TBLPTR equ 0FF6h ;# 
   880                           opt subtitle "HI-TECH Software Omniscient Code Generator (Lite mode) build 49521"
   881  0000                     TBLPTRL equ 0FF6h ;# 
   882                           opt subtitle "HI-TECH Software Omniscient Code Generator (Lite mode) build 49521"
   883  0000                     TBLPTRH equ 0FF7h ;# 
   884                           opt subtitle "HI-TECH Software Omniscient Code Generator (Lite mode) build 49521"
   885  0000                     TBLPTRU equ 0FF8h ;# 
   886                           opt subtitle "HI-TECH Software Omniscient Code Generator (Lite mode) build 49521"
   887  0000                     PCLAT equ 0FF9h ;# 
   888                           opt subtitle "HI-TECH Software Omniscient Code Generator (Lite mode) build 49521"
   889  0000                     PC equ 0FF9h ;# 
   890                           opt subtitle "HI-TECH Software Omniscient Code Generator (Lite mode) build 49521"
   891  0000                     PCL equ 0FF9h ;# 
   892                           opt subtitle "HI-TECH Software Omniscient Code Generator (Lite mode) build 49521"
   893  0000                     PCLATH equ 0FFAh ;# 
   894                           opt subtitle "HI-TECH Software Omniscient Code Generator (Lite mode) build 49521"
   895  0000                     PCLATU equ 0FFBh ;# 
   896                           opt subtitle "HI-TECH Software Omniscient Code Generator (Lite mode) build 49521"
   897  0000                     STKPTR equ 0FFCh ;# 
   898                           opt subtitle "HI-TECH Software Omniscient Code Generator (Lite mode) build 49521"
   899  0000                     TOS equ 0FFDh ;# 
   900                           opt subtitle "HI-TECH Software Omniscient Code Generator (Lite mode) build 49521"
   901  0000                     TOSL equ 0FFDh ;# 
   902                           opt subtitle "HI-TECH Software Omniscient Code Generator (Lite mode) build 49521"
   903  0000                     TOSH equ 0FFEh ;# 
   904                           opt subtitle "HI-TECH Software Omniscient Code Generator (Lite mode) build 49521"
   905  0000                     TOSU equ 0FFFh ;# 
   906                           opt subtitle "HI-TECH Software Omniscient Code Generator (Lite mode) build 49521"
   907                           
   908                           opt pagewidth 120
   909                           
   910                           	opt lm
   911                           
   912                           	processor	18F2480
   913                           porta	equ	0F80h
   914                           portb	equ	0F81h
   915                           portc	equ	0F82h
   916                           portd	equ	0F83h
   917                           porte	equ	0F84h
   918                           lata	equ	0F89h
   919                           latb	equ	0F8Ah
   920                           latc	equ	0F8Bh
   921                           latd	equ	0F8Ch
   922                           late	equ	0F8Dh
   923                           trisa	equ	0F92h
   924                           trisb	equ	0F93h
   925                           trisc	equ	0F94h
   926                           trisd	equ	0F95h
   927                           trise	equ	0F96h
   928                           pie1	equ	0F9Dh
   929                           pir1	equ	0F9Eh
   930                           ipr1	equ	0F9Fh
   931                           pie2	equ	0FA0h
   932  0000                     _ADCON1	set	0xFC1
   933                           opt subtitle "HI-TECH Software Omniscient Code Generator (Lite mode) build 49521"
   934  0000                     _CMCON	set	0xFB4
   935                           opt subtitle "HI-TECH Software Omniscient Code Generator (Lite mode) build 49521"
   936  0000                     _INTCON	set	0xFF2
   937                           opt subtitle "HI-TECH Software Omniscient Code Generator (Lite mode) build 49521"
   938  0000                     _IPR1	set	0xF9F
   939                           opt subtitle "HI-TECH Software Omniscient Code Generator (Lite mode) build 49521"
   940  0000                     _OSCCONbits	set	0xFD3
   941                           opt subtitle "HI-TECH Software Omniscient Code Generator (Lite mode) build 49521"
   942  0000                     _PIE1	set	0xF9D
   943                           opt subtitle "HI-TECH Software Omniscient Code Generator (Lite mode) build 49521"
   944  0000                     _PIE1bits	set	0xF9D
   945                           opt subtitle "HI-TECH Software Omniscient Code Generator (Lite mode) build 49521"
   946  0000                     _PIR1bits	set	0xF9E
   947                           opt subtitle "HI-TECH Software Omniscient Code Generator (Lite mode) build 49521"
   948  0000                     _PORTA	set	0xF80
   949                           opt subtitle "HI-TECH Software Omniscient Code Generator (Lite mode) build 49521"
   950  0000                     _PORTAbits	set	0xF80
   951                           opt subtitle "HI-TECH Software Omniscient Code Generator (Lite mode) build 49521"
   952  0000                     _PORTB	set	0xF81
   953                           opt subtitle "HI-TECH Software Omniscient Code Generator (Lite mode) build 49521"
   954  0000                     _PORTBbits	set	0xF81
   955                           opt subtitle "HI-TECH Software Omniscient Code Generator (Lite mode) build 49521"
   956  0000                     _PORTC	set	0xF82
   957                           opt subtitle "HI-TECH Software Omniscient Code Generator (Lite mode) build 49521"
   958  0000                     _PORTCbits	set	0xF82
   959                           opt subtitle "HI-TECH Software Omniscient Code Generator (Lite mode) build 49521"
   960  0000                     _PR2	set	0xFCB
   961                           opt subtitle "HI-TECH Software Omniscient Code Generator (Lite mode) build 49521"
   962  0000                     _T2CON	set	0xFCA
   963                           opt subtitle "HI-TECH Software Omniscient Code Generator (Lite mode) build 49521"
   964  0000                     _T2CONbits	set	0xFCA
   965                           opt subtitle "HI-TECH Software Omniscient Code Generator (Lite mode) build 49521"
   966  0000                     _TMR2	set	0xFCC
   967                           opt subtitle "HI-TECH Software Omniscient Code Generator (Lite mode) build 49521"
   968  0000                     _TRISA	set	0xF92
   969                           opt subtitle "HI-TECH Software Omniscient Code Generator (Lite mode) build 49521"
   970  0000                     _TRISB	set	0xF93
   971                           opt subtitle "HI-TECH Software Omniscient Code Generator (Lite mode) build 49521"
   972  0000                     _TRISC	set	0xF94
   973                           opt subtitle "HI-TECH Software Omniscient Code Generator (Lite mode) build 49521"
   974                           
   975  00001C                     __ptext0:
   976                           opt subtitle "HI-TECH Software Omniscient Code Generator (Lite mode) build 49521"
   977                           
   978  0000                     __CFG_IESO$OFF equ 0x0
   979                           opt subtitle "HI-TECH Software Omniscient Code Generator (Lite mode) build 49521"
   980  0000                     __CFG_OSC$IRCIO67 equ 0x0
   981                           opt subtitle "HI-TECH Software Omniscient Code Generator (Lite mode) build 49521"
   982  0000                     __CFG_FCMEN$OFF equ 0x0
   983                           opt subtitle "HI-TECH Software Omniscient Code Generator (Lite mode) build 49521"
   984  0000                     __CFG_BOREN$BOHW equ 0x0
   985                           opt subtitle "HI-TECH Software Omniscient Code Generator (Lite mode) build 49521"
   986  0000                     __CFG_BORV$3 equ 0x0
   987                           opt subtitle "HI-TECH Software Omniscient Code Generator (Lite mode) build 49521"
   988  0000                     __CFG_PWRT$OFF equ 0x0
   989                           opt subtitle "HI-TECH Software Omniscient Code Generator (Lite mode) build 49521"
   990  0000                     __CFG_WDTPS$32768 equ 0x0
   991                           opt subtitle "HI-TECH Software Omniscient Code Generator (Lite mode) build 49521"
   992  0000                     __CFG_WDT$OFF equ 0x0
   993                           opt subtitle "HI-TECH Software Omniscient Code Generator (Lite mode) build 49521"
   994  0000                     __CFG_PBADEN$OFF equ 0x0
   995                           opt subtitle "HI-TECH Software Omniscient Code Generator (Lite mode) build 49521"
   996  0000                     __CFG_LPT1OSC$OFF equ 0x0
   997                           opt subtitle "HI-TECH Software Omniscient Code Generator (Lite mode) build 49521"
   998  0000                     __CFG_MCLRE$ON equ 0x0
   999                           opt subtitle "HI-TECH Software Omniscient Code Generator (Lite mode) build 49521"
  1000  0000                     __CFG_STVREN$ON equ 0x0
  1001                           opt subtitle "HI-TECH Software Omniscient Code Generator (Lite mode) build 49521"
  1002  0000                     __CFG_XINST$OFF equ 0x0
  1003                           opt subtitle "HI-TECH Software Omniscient Code Generator (Lite mode) build 49521"
  1004  0000                     __CFG_BBSIZ$1024 equ 0x0
  1005                           opt subtitle "HI-TECH Software Omniscient Code Generator (Lite mode) build 49521"
  1006  0000                     __CFG_LVP$OFF equ 0x0
  1007                           opt subtitle "HI-TECH Software Omniscient Code Generator (Lite mode) build 49521"
  1008  0000                     __CFG_CP0$OFF equ 0x0
  1009                           opt subtitle "HI-TECH Software Omniscient Code Generator (Lite mode) build 49521"
  1010  0000                     __CFG_CP1$OFF equ 0x0
  1011                           opt subtitle "HI-TECH Software Omniscient Code Generator (Lite mode) build 49521"
  1012  0000                     __CFG_CPD$OFF equ 0x0
  1013                           opt subtitle "HI-TECH Software Omniscient Code Generator (Lite mode) build 49521"
  1014  0000                     __CFG_CPB$OFF equ 0x0
  1015                           opt subtitle "HI-TECH Software Omniscient Code Generator (Lite mode) build 49521"
  1016  0000                     __CFG_WRT0$OFF equ 0x0
  1017                           opt subtitle "HI-TECH Software Omniscient Code Generator (Lite mode) build 49521"
  1018  0000                     __CFG_WRT1$OFF equ 0x0
  1019                           opt subtitle "HI-TECH Software Omniscient Code Generator (Lite mode) build 49521"
  1020  0000                     __CFG_WRTB$OFF equ 0x0
  1021                           opt subtitle "HI-TECH Software Omniscient Code Generator (Lite mode) build 49521"
  1022  0000                     __CFG_WRTC$OFF equ 0x0
  1023                           opt subtitle "HI-TECH Software Omniscient Code Generator (Lite mode) build 49521"
  1024  0000                     __CFG_WRTD$OFF equ 0x0
  1025                           opt subtitle "HI-TECH Software Omniscient Code Generator (Lite mode) build 49521"
  1026  0000                     __CFG_EBTR0$OFF equ 0x0
  1027                           opt subtitle "HI-TECH Software Omniscient Code Generator (Lite mode) build 49521"
  1028  0000                     __CFG_EBTR1$OFF equ 0x0
  1029                           opt subtitle "HI-TECH Software Omniscient Code Generator (Lite mode) build 49521"
  1030  0000                     __CFG_EBTRB$OFF equ 0x0
  1031                           opt subtitle "HI-TECH Software Omniscient Code Generator (Lite mode) build 49521"
  1032                           
  1033                           opt pagewidth 120
  1034                           
  1035  0004FC                     __pcinit:
  1036                           opt subtitle "HI-TECH Software Omniscient Code Generator (Lite mode) build 49521"
  1037  0004FC                     start_initialization:
  1038                           opt subtitle "HI-TECH Software Omniscient Code Generator (Lite mode) build 49521"
  1039                           
  1040  0004FC                     __initialization:
  1041                           opt subtitle "HI-TECH Software Omniscient Code Generator (Lite mode) build 49521"
  1042                           
  1043  000001                     __pbssCOMRAM:
  1044                           opt subtitle "HI-TECH Software Omniscient Code Generator (Lite mode) build 49521"
  1045  000001                     _OUTPUTS:
  1046  000001                            ds      8
  1047                           opt subtitle "HI-TECH Software Omniscient Code Generator (Lite mode) build 49521"
  1048  000009                     _TIMERS:
  1049  000009                            ds      8
  1050                           opt subtitle "HI-TECH Software Omniscient Code Generator (Lite mode) build 49521"
  1051                           
  1052  000011                     _DebounceCounters:
  1053  000011                            ds      4
  1054                           opt subtitle "HI-TECH Software Omniscient Code Generator (Lite mode) build 49521"
  1055  000015                     _Tms:
  1056  000015                            ds      2
  1057                           opt subtitle "HI-TECH Software Omniscient Code Generator (Lite mode) build 49521"
  1058  000017                     _BUTTON1_PREV:
  1059  000017                            ds      1
  1060                           opt subtitle "HI-TECH Software Omniscient Code Generator (Lite mode) build 49521"
  1061  000018                     _BUTTON2_PREV:
  1062  000018                            ds      1
  1063                           opt subtitle "HI-TECH Software Omniscient Code Generator (Lite mode) build 49521"
  1064  000019                     _BUTTON3_PREV:
  1065  000019                            ds      1
  1066                           opt subtitle "HI-TECH Software Omniscient Code Generator (Lite mode) build 49521"
  1067  00001A                     _LoopCounter:
  1068  00001A                            ds      1
  1069                           opt subtitle "HI-TECH Software Omniscient Code Generator (Lite mode) build 49521"
  1070  00001B                     _T1s:
  1071  00001B                            ds      1
  1072                           opt subtitle "HI-TECH Software Omniscient Code Generator (Lite mode) build 49521"
  1073  00001C                     _blink:
  1074  00001C                            ds      1
  1075                           opt subtitle "HI-TECH Software Omniscient Code Generator (Lite mode) build 49521"
  1076  00001D                     _read:
  1077  00001D                            ds      1
  1078                           opt subtitle "HI-TECH Software Omniscient Code Generator (Lite mode) build 49521"
  1079  00001E                     _BUTTON1_COUNTER:
  1080  00001E                            ds      1
  1081                           opt subtitle "HI-TECH Software Omniscient Code Generator (Lite mode) build 49521"
  1082  00001F                     _BUTTON1_STATE:
  1083  00001F                            ds      1
  1084                           opt subtitle "HI-TECH Software Omniscient Code Generator (Lite mode) build 49521"
  1085  000020                     _BUTTON2_COUNTER:
  1086  000020                            ds      1
  1087                           opt subtitle "HI-TECH Software Omniscient Code Generator (Lite mode) build 49521"
  1088  000021                     _BUTTON2_STATE:
  1089  000021                            ds      1
  1090                           opt subtitle "HI-TECH Software Omniscient Code Generator (Lite mode) build 49521"
  1091  000022                     _BUTTON3_COUNTER:
  1092  000022                            ds      1
  1093                           opt subtitle "HI-TECH Software Omniscient Code Generator (Lite mode) build 49521"
  1094  000023                     _BUTTON3_STATE:
  1095  000023                            ds      1
  1096                           opt subtitle "HI-TECH Software Omniscient Code Generator (Lite mode) build 49521"
  1097                           
  1098                           opt pagewidth 120
  1099  0004FC  EE00  F001         lfsr	0,__pbssCOMRAM
  1100  000500  0E23               movlw	35
  1101  000502                     clear_0:
  1102  000502  6AEE               clrf	postinc0,c
  1103  000504  06E8               decf	wreg
  1104  000506  E1FD               bnz	clear_0
  1105                           opt subtitle "HI-TECH Software Omniscient Code Generator (Lite mode) build 49521"
  1106                           
  1107                           opt pagewidth 120
  1108                           
  1109                           	opt lm
  1110  000508                     end_of_initialization:
  1111  000508                     __end_of__initialization:movlb 0
  1112  00050A  EF0E  F000         goto _main	;jump to C main() function
  1113                           opt subtitle "HI-TECH Software Omniscient Code Generator (Lite mode) build 49521"
  1114                           
  1115  000024                     __pcstackCOMRAM:
  1116  000024                     ?_InitialiseHardware:	; 0 bytes @ 0x0
  1117  000024                     ?_InitialiseGlobals:	; 0 bytes @ 0x0
  1118  000024                     ?_isr:	; 0 bytes @ 0x0
  1119  000024                     ?_main:	; 0 bytes @ 0x0
  1120                           opt subtitle "HI-TECH Software Omniscient Code Generator (Lite mode) build 49521"
  1121  000024                     ?___lwmod:	; 2 bytes @ 0x0
  1122                           opt subtitle "HI-TECH Software Omniscient Code Generator (Lite mode) build 49521"
  1123  000024                     ___lwmod@dividend:	; 2 bytes @ 0x0
  1124  000024                     	ds   2
  1125                           opt subtitle "HI-TECH Software Omniscient Code Generator (Lite mode) build 49521"
  1126  000026                     ___lwmod@divisor:	; 2 bytes @ 0x2
  1127  000026                     	ds   2
  1128  000028                     ??___lwmod:	; 0 bytes @ 0x4
  1129  000028                     	ds   1
  1130                           opt subtitle "HI-TECH Software Omniscient Code Generator (Lite mode) build 49521"
  1131  000029                     ___lwmod@counter:	; 1 bytes @ 0x5
  1132  000029                     	ds   1
  1133  00002A                     ??_isr:	; 0 bytes @ 0x6
  1134  00002A                     	ds   15
  1135  000039                     ??_InitialiseGlobals:	; 0 bytes @ 0x15
  1136                           opt subtitle "HI-TECH Software Omniscient Code Generator (Lite mode) build 49521"
  1137  000039                     ?_OpenTimer2:	; 0 bytes @ 0x15
  1138                           opt subtitle "HI-TECH Software Omniscient Code Generator (Lite mode) build 49521"
  1139  000039                     ?_debounce:	; 2 bytes @ 0x15
  1140                           opt subtitle "HI-TECH Software Omniscient Code Generator (Lite mode) build 49521"
  1141  000039                     debounce@test:	; 1 bytes @ 0x15
  1142                           opt subtitle "HI-TECH Software Omniscient Code Generator (Lite mode) build 49521"
  1143  000039                     OpenTimer2@config:	; 1 bytes @ 0x15
  1144  000039                     	ds   1
  1145  00003A                     ??_InitialiseHardware:	; 0 bytes @ 0x16
  1146  00003A                     ??_OpenTimer2:	; 0 bytes @ 0x16
  1147                           opt subtitle "HI-TECH Software Omniscient Code Generator (Lite mode) build 49521"
  1148  00003A                     debounce@state:	; 2 bytes @ 0x16
  1149  00003A                     	ds   1
  1150                           opt subtitle "HI-TECH Software Omniscient Code Generator (Lite mode) build 49521"
  1151  00003B                     InitialiseGlobals@i:	; 2 bytes @ 0x17
  1152  00003B                     	ds   1
  1153                           opt subtitle "HI-TECH Software Omniscient Code Generator (Lite mode) build 49521"
  1154  00003C                     debounce@counter:	; 2 bytes @ 0x18
  1155  00003C                     	ds   2
  1156  00003E                     ??_debounce:	; 0 bytes @ 0x1A
  1157  00003E                     ??_main:	; 0 bytes @ 0x1A
  1158  00003E                     	ds   1
  1159                           opt subtitle "HI-TECH Software Omniscient Code Generator (Lite mode) build 49521"
  1160  00003F                     main@i:	; 2 bytes @ 0x1B
  1161  00003F                     	ds   2
  1162                           opt subtitle "HI-TECH Software Omniscient Code Generator (Lite mode) build 49521"
  1163  000041                     main@temp:	; 2 bytes @ 0x1D
  1164  000041                     	ds   2
  1165                           opt subtitle "HI-TECH Software Omniscient Code Generator (Lite mode) build 49521"
  1166  000043                     main@time:	; 2 bytes @ 0x1F
  1167  000043                     	ds   2
  1168                           opt subtitle "HI-TECH Software Omniscient Code Generator (Lite mode) build 49521"
  1169  000045                     main@lightslatch:	; 2 bytes @ 0x21
  1170  000045                     	ds   2
  1171                           opt subtitle "HI-TECH Software Omniscient Code Generator (Lite mode) build 49521"
  1172                           
  1173                           opt pagewidth 120
  1174                           
  1175                           	opt lm
  1176                           
  1177                           	processor	18F2480
  1178                           porta	equ	0F80h
  1179                           portb	equ	0F81h
  1180                           portc	equ	0F82h
  1181                           portd	equ	0F83h
  1182                           porte	equ	0F84h
  1183                           lata	equ	0F89h
  1184                           latb	equ	0F8Ah
  1185                           latc	equ	0F8Bh
  1186                           latd	equ	0F8Ch
  1187                           late	equ	0F8Dh
  1188                           trisa	equ	0F92h
  1189                           trisb	equ	0F93h
  1190                           trisc	equ	0F94h
  1191                           trisd	equ	0F95h
  1192                           trise	equ	0F96h
  1193                           pie1	equ	0F9Dh
  1194                           pir1	equ	0F9Eh
  1195                           ipr1	equ	0F9Fh
  1196                           pie2	equ	0FA0h
  1197                           pir2	equ	0FA1h
  1198                           ipr2	equ	0FA2h
  1199                           t3con	equ	0FB1h
  1200                           tmr3l	equ	0FB2h
  1201                           tmr3h	equ	0FB3h
  1202                           ccp1con	equ	0FBDh
  1203                           ccpr1l	equ	0FBEh
  1204                           ccpr1h	equ	0FBFh
  1205                           adcon1	equ	0FC1h
  1206                           adcon0	equ	0FC2h
  1207                           adresl	equ	0FC3h
  1208                           adresh	equ	0FC4h
  1209                           sspcon2	equ	0FC5h
  1210                           sspcon1	equ	0FC6h
  1211                           sspstat	equ	0FC7h
  1212                           sspadd	equ	0FC8h
  1213                           sspbuf	equ	0FC9h
  1214                           t2con	equ	0FCAh
  1215                           pr2	equ	0FCBh
  1216                           tmr2	equ	0FCCh
  1217                           t1con	equ	0FCDh
  1218                           tmr1l	equ	0FCEh
  1219                           tmr1h	equ	0FCFh
  1220                           rcon	equ	0FD0h
  1221                           wdtcon	equ	0FD1h
  1222                           lvdcon	equ	0FD2h
  1223                           osccon	equ	0FD3h
  1224                           t0con	equ	0FD5h
  1225                           tmr0l	equ	0FD6h
  1226                           tmr0h	equ	0FD7h
  1227                           status	equ	0FD8h
  1228                           fsr2	equ	0FD9h
  1229                           fsr2l	equ	0FD9h
  1230                           fsr2h	equ	0FDAh
  1231                           plusw2	equ	0FDBh
  1232                           preinc2	equ	0FDCh
  1233                           postdec2	equ	0FDDh
  1234                           postinc2	equ	0FDEh
  1235                           indf2	equ	0FDFh
  1236                           bsr	equ	0FE0h
  1237                           fsr1	equ	0FE1h
  1238                           fsr1l	equ	0FE1h
  1239                           fsr1h	equ	0FE2h
  1240                           plusw1	equ	0FE3h
  1241                           preinc1	equ	0FE4h
  1242                           postdec1	equ	0FE5h
  1243                           postinc1	equ	0FE6h
  1244                           indf1	equ	0FE7h
  1245                           wreg	equ	0FE8h
  1246                           fsr0	equ	0FE9h
  1247                           fsr0l	equ	0FE9h
  1248                           fsr0h	equ	0FEAh
  1249                           plusw0	equ	0FEBh
  1250                           preinc0	equ	0FECh
  1251                           postdec0	equ	0FEDh
  1252                           postinc0	equ	0FEEh
  1253                           indf0	equ	0FEFh
  1254                           intcon3	equ	0FF0h
  1255                           intcon2	equ	0FF1h
  1256                           intcon	equ	0FF2h
  1257                           prod	equ	0FF3h
  1258                           prodl	equ	0FF3h
  1259                           prodh	equ	0FF4h
  1260                           tablat	equ	0FF5h
  1261                           tblptr	equ	0FF6h
  1262                           tblptrl	equ	0FF6h
  1263                           tblptrh	equ	0FF7h
  1264                           tblptru	equ	0FF8h
  1265                           pcl	equ	0FF9h
  1266                           pclat	equ	0FFAh
  1267                           pclath	equ	0FFAh
  1268                           pclatu	equ	0FFBh
  1269                           stkptr	equ	0FFCh
  1270                           tosl	equ	0FFDh
  1271                           tosh	equ	0FFEh
  1272                           tosu	equ	0FFFh
  1273                           skipnz macro
  1274                           	btfsc	status,2
  1275                           	endm
  1276                           	global	__ramtop
  1277                           	global	__accesstop
  1278                           # 46 "C:\Program Files (x86)\Microchip\xc8\v1.12\include\PIC18F2480.H"
  1279                           RXF6SIDH equ 0D60h ;# 
  1280                           # 178 "C:\Program Files (x86)\Microchip\xc8\v1.12\include\PIC18F2480.H"
  1281                           RXF6SIDL equ 0D61h ;# 
  1282                           # 291 "C:\Program Files (x86)\Microchip\xc8\v1.12\include\PIC18F2480.H"
  1283                           RXF6EIDH equ 0D62h ;# 
  1284                           # 423 "C:\Program Files (x86)\Microchip\xc8\v1.12\include\PIC18F2480.H"
  1285                           RXF6EIDL equ 0D63h ;# 
  1286                           # 555 "C:\Program Files (x86)\Microchip\xc8\v1.12\include\PIC18F2480.H"
  1287                           RXF7SIDH equ 0D64h ;# 
  1288                           # 687 "C:\Program Files (x86)\Microchip\xc8\v1.12\include\PIC18F2480.H"
  1289                           RXF7SIDL equ 0D65h ;# 
  1290                           # 800 "C:\Program Files (x86)\Microchip\xc8\v1.12\include\PIC18F2480.H"
  1291                           RXF7EIDH equ 0D66h ;# 
  1292                           # 932 "C:\Program Files (x86)\Microchip\xc8\v1.12\include\PIC18F2480.H"
  1293                           RXF7EIDL equ 0D67h ;# 
  1294                           # 1064 "C:\Program Files (x86)\Microchip\xc8\v1.12\include\PIC18F2480.H"
  1295                           RXF8SIDH equ 0D68h ;# 
  1296                           # 1196 "C:\Program Files (x86)\Microchip\xc8\v1.12\include\PIC18F2480.H"
  1297                           RXF8SIDL equ 0D69h ;# 
  1298                           # 1309 "C:\Program Files (x86)\Microchip\xc8\v1.12\include\PIC18F2480.H"
  1299                           RXF8EIDH equ 0D6Ah ;# 
  1300                           # 1441 "C:\Program Files (x86)\Microchip\xc8\v1.12\include\PIC18F2480.H"
  1301                           RXF8EIDL equ 0D6Bh ;# 
  1302                           # 1573 "C:\Program Files (x86)\Microchip\xc8\v1.12\include\PIC18F2480.H"
  1303                           RXF9SIDH equ 0D70h ;# 
  1304                           # 1705 "C:\Program Files (x86)\Microchip\xc8\v1.12\include\PIC18F2480.H"
  1305                           RXF9SIDL equ 0D71h ;# 
  1306                           # 1818 "C:\Program Files (x86)\Microchip\xc8\v1.12\include\PIC18F2480.H"
  1307                           RXF9EIDH equ 0D72h ;# 
  1308                           # 1950 "C:\Program Files (x86)\Microchip\xc8\v1.12\include\PIC18F2480.H"
  1309                           RXF9EIDL equ 0D73h ;# 
  1310                           # 2082 "C:\Program Files (x86)\Microchip\xc8\v1.12\include\PIC18F2480.H"
  1311                           RXF10SIDH equ 0D74h ;# 
  1312                           # 2214 "C:\Program Files (x86)\Microchip\xc8\v1.12\include\PIC18F2480.H"
  1313                           RXF10SIDL equ 0D75h ;# 
  1314                           # 2327 "C:\Program Files (x86)\Microchip\xc8\v1.12\include\PIC18F2480.H"
  1315                           RXF10EIDH equ 0D76h ;# 
  1316                           # 2459 "C:\Program Files (x86)\Microchip\xc8\v1.12\include\PIC18F2480.H"
  1317                           RXF10EIDL equ 0D77h ;# 
  1318                           # 2591 "C:\Program Files (x86)\Microchip\xc8\v1.12\include\PIC18F2480.H"
  1319                           RXF11SIDH equ 0D78h ;# 
  1320                           # 2723 "C:\Program Files (x86)\Microchip\xc8\v1.12\include\PIC18F2480.H"
  1321                           RXF11SIDL equ 0D79h ;# 
  1322                           # 2836 "C:\Program Files (x86)\Microchip\xc8\v1.12\include\PIC18F2480.H"
  1323                           RXF11EIDH equ 0D7Ah ;# 
  1324                           # 2968 "C:\Program Files (x86)\Microchip\xc8\v1.12\include\PIC18F2480.H"
  1325                           RXF11EIDL equ 0D7Bh ;# 
  1326                           # 3100 "C:\Program Files (x86)\Microchip\xc8\v1.12\include\PIC18F2480.H"
  1327                           RXF12SIDH equ 0D80h ;# 
  1328                           # 3232 "C:\Program Files (x86)\Microchip\xc8\v1.12\include\PIC18F2480.H"
  1329                           RXF12SIDL equ 0D81h ;# 
  1330                           # 3345 "C:\Program Files (x86)\Microchip\xc8\v1.12\include\PIC18F2480.H"
  1331                           RXF12EIDH equ 0D82h ;# 
  1332                           # 3477 "C:\Program Files (x86)\Microchip\xc8\v1.12\include\PIC18F2480.H"
  1333                           RXF12EIDL equ 0D83h ;# 
  1334                           # 3609 "C:\Program Files (x86)\Microchip\xc8\v1.12\include\PIC18F2480.H"
  1335                           RXF13SIDH equ 0D84h ;# 
  1336                           # 3741 "C:\Program Files (x86)\Microchip\xc8\v1.12\include\PIC18F2480.H"
  1337                           RXF13SIDL equ 0D85h ;# 
  1338                           # 3854 "C:\Program Files (x86)\Microchip\xc8\v1.12\include\PIC18F2480.H"
  1339                           RXF13EIDH equ 0D86h ;# 
  1340                           # 3986 "C:\Program Files (x86)\Microchip\xc8\v1.12\include\PIC18F2480.H"
  1341                           RXF13EIDL equ 0D87h ;# 
  1342                           # 4118 "C:\Program Files (x86)\Microchip\xc8\v1.12\include\PIC18F2480.H"
  1343                           RXF14SIDH equ 0D88h ;# 
  1344                           # 4250 "C:\Program Files (x86)\Microchip\xc8\v1.12\include\PIC18F2480.H"
  1345                           RXF14SIDL equ 0D89h ;# 
  1346                           # 4363 "C:\Program Files (x86)\Microchip\xc8\v1.12\include\PIC18F2480.H"
  1347                           RXF14EIDH equ 0D8Ah ;# 
  1348                           # 4495 "C:\Program Files (x86)\Microchip\xc8\v1.12\include\PIC18F2480.H"
  1349                           RXF14EIDL equ 0D8Bh ;# 
  1350                           # 4627 "C:\Program Files (x86)\Microchip\xc8\v1.12\include\PIC18F2480.H"
  1351                           RXF15SIDH equ 0D90h ;# 
  1352                           # 4759 "C:\Program Files (x86)\Microchip\xc8\v1.12\include\PIC18F2480.H"
  1353                           RXF15SIDL equ 0D91h ;# 
  1354                           # 4872 "C:\Program Files (x86)\Microchip\xc8\v1.12\include\PIC18F2480.H"
  1355                           RXF15EIDH equ 0D92h ;# 
  1356  0000                     	__size_of_main	equ	__end_of_main-_main
  1357                           opt subtitle "HI-TECH Software Omniscient Code Generator (Lite mode) build 49521"
  1358  00001C                     _main:
  1359                           opt subtitle "HI-TECH Software Omniscient Code Generator (Lite mode) build 49521"
  1360                           
  1361                           opt pagewidth 120
  1362  00001C                     l754:
  1363                           opt subtitle "HI-TECH Software Omniscient Code Generator (Lite mode) build 49521"
  1364  00001C  0E00               	movlw	high(0)
  1365  00001E  6E40               	movwf	((c:main@i+1)),c
  1366  000020  0E00               	movlw	low(0)
  1367  000022  6E3F               	movwf	((c:main@i)),c
  1368                           opt subtitle "HI-TECH Software Omniscient Code Generator (Lite mode) build 49521"
  1369                           
  1370  000024  0E00               	movlw	high(0)
  1371  000026  6E42               	movwf	((c:main@temp+1)),c
  1372  000028  0E00               	movlw	low(0)
  1373  00002A  6E41               	movwf	((c:main@temp)),c
  1374                           opt subtitle "HI-TECH Software Omniscient Code Generator (Lite mode) build 49521"
  1375                           
  1376  00002C  0E00               	movlw	high(0)
  1377  00002E  6E44               	movwf	((c:main@time+1)),c
  1378  000030  0E00               	movlw	low(0)
  1379  000032  6E43               	movwf	((c:main@time)),c
  1380                           opt subtitle "HI-TECH Software Omniscient Code Generator (Lite mode) build 49521"
  1381                           
  1382  000034  0E00               	movlw	high(0)
  1383  000036  6E46               	movwf	((c:main@lightslatch+1)),c
  1384  000038  0E00               	movlw	low(0)
  1385  00003A  6E45               	movwf	((c:main@lightslatch)),c
  1386                           opt subtitle "HI-TECH Software Omniscient Code Generator (Lite mode) build 49521"
  1387                           
  1388  00003C                     l756:
  1389                           opt subtitle "HI-TECH Software Omniscient Code Generator (Lite mode) build 49521"
  1390  00003C  EC4D  F002         	call	_InitialiseHardware	;wreg free
  1391                           opt subtitle "HI-TECH Software Omniscient Code Generator (Lite mode) build 49521"
  1392                           
  1393  000040                     l758:
  1394                           opt subtitle "HI-TECH Software Omniscient Code Generator (Lite mode) build 49521"
  1395  000040  EC7E  F001         	call	_InitialiseGlobals	;wreg free
  1396                           opt subtitle "HI-TECH Software Omniscient Code Generator (Lite mode) build 49521"
  1397                           
  1398  000044                     l760:
  1399                           opt subtitle "HI-TECH Software Omniscient Code Generator (Lite mode) build 49521"
  1400  000044  8481               	bsf	((c:3969)),c,2	;volatile
  1401                           opt subtitle "HI-TECH Software Omniscient Code Generator (Lite mode) build 49521"
  1402                           
  1403  000046                     l762:
  1404                           opt subtitle "HI-TECH Software Omniscient Code Generator (Lite mode) build 49521"
  1405  000046  8081               	bsf	((c:3969)),c,0	;volatile
  1406                           opt subtitle "HI-TECH Software Omniscient Code Generator (Lite mode) build 49521"
  1407                           
  1408  000048  D001               	goto	l764
  1409                           opt subtitle "HI-TECH Software Omniscient Code Generator (Lite mode) build 49521"
  1410  00004A                     l90:
  1411  00004A  D000               	goto	l764
  1412                           opt subtitle "HI-TECH Software Omniscient Code Generator (Lite mode) build 49521"
  1413  00004C                     l89:
  1414                           opt subtitle "HI-TECH Software Omniscient Code Generator (Lite mode) build 49521"
  1415  00004C                     l764:
  1416  00004C  501B               	movf	((c:_T1s)),c,w
  1417  00004E  B4D8               	btfsc	status,2
  1418  000050  D001               	goto	u11
  1419  000052  D001               	goto	u10
  1420  000054                     u11:
  1421  000054  D7FB               	goto	l764
  1422  000056                     u10:
  1423  000056  D001               	goto	l766
  1424                           opt subtitle "HI-TECH Software Omniscient Code Generator (Lite mode) build 49521"
  1425  000058                     l91:
  1426  000058  D000               	goto	l766
  1427                           opt subtitle "HI-TECH Software Omniscient Code Generator (Lite mode) build 49521"
  1428                           
  1429                           opt pagewidth 120
  1430  00005A                     l92:
  1431                           opt subtitle "HI-TECH Software Omniscient Code Generator (Lite mode) build 49521"
  1432                           
  1433  00005A                     l766:
  1434                           opt subtitle "HI-TECH Software Omniscient Code Generator (Lite mode) build 49521"
  1435  00005A  041C               	decf	((c:_blink)),c,w
  1436                           opt subtitle "HI-TECH Software Omniscient Code Generator (Lite mode) build 49521"
  1437  00005C  A4D8               	btfss	status,2
  1438  00005E  D001               	goto	u21
  1439  000060  D001               	goto	u20
  1440  000062                     u21:
  1441  000062  D011               	goto	l772
  1442  000064                     u20:
  1443                           opt subtitle "HI-TECH Software Omniscient Code Generator (Lite mode) build 49521"
  1444                           
  1445  000064                     l768:
  1446                           opt subtitle "HI-TECH Software Omniscient Code Generator (Lite mode) build 49521"
  1447                           
  1448  000064  A081               	btfss	((c:3969)),c,0	;volatile
  1449  000066  D001               	goto	u31
  1450  000068  D002               	goto	u30
  1451  00006A                     u31:
  1452  00006A  0E01               	movlw	1
  1453  00006C  D001               	goto	u36
  1454  00006E                     u30:
  1455  00006E  0E00               	movlw	0
  1456  000070                     u36:
  1457  000070  6E3E               	movwf	(??_main+0+0)&0ffh,c
  1458  000072  5081               	movf	((c:3969)),c,w	;volatile
  1459  000074  183E               	xorwf	((??_main+0+0)),c,w
  1460  000076  0BFE               	andlw	not ((1<<1)-1)
  1461  000078  183E               	xorwf	((??_main+0+0)),c,w
  1462  00007A  6E81               	movwf	((c:3969)),c	;volatile
  1463                           opt subtitle "HI-TECH Software Omniscient Code Generator (Lite mode) build 49521"
  1464                           
  1465  00007C                     l770:
  1466                           opt subtitle "HI-TECH Software Omniscient Code Generator (Lite mode) build 49521"
  1467  00007C  6E3E               	movwf	(??_main+0+0)&0ffh,c
  1468  00007E  0E00               	movlw	low(0)
  1469  000080  6E1C               	movwf	((c:_blink)),c
  1470  000082  503E               	movf	(??_main+0+0)&0ffh,c,w
  1471  000084  D000               	goto	l772
  1472                           opt subtitle "HI-TECH Software Omniscient Code Generator (Lite mode) build 49521"
  1473                           
  1474  000086                     l93:
  1475                           opt subtitle "HI-TECH Software Omniscient Code Generator (Lite mode) build 49521"
  1476                           
  1477  000086                     l772:
  1478                           opt subtitle "HI-TECH Software Omniscient Code Generator (Lite mode) build 49521"
  1479                           
  1480                           opt pagewidth 120
  1481  000086  A280               	btfss	((c:3968)),c,1	;volatile
  1482  000088  D001               	goto	u41
  1483  00008A  D001               	goto	u40
  1484  00008C                     u41:
  1485  00008C  D008               	goto	l96
  1486  00008E                     u40:
  1487                           opt subtitle "HI-TECH Software Omniscient Code Generator (Lite mode) build 49521"
  1488  00008E                     l774:
  1489                           opt subtitle "HI-TECH Software Omniscient Code Generator (Lite mode) build 49521"
  1490  00008E  A480               	btfss	((c:3968)),c,2	;volatile
  1491  000090  D001               	goto	u51
  1492  000092  D001               	goto	u50
  1493  000094                     u51:
  1494  000094  D004               	goto	l96
  1495  000096                     u50:
  1496                           opt subtitle "HI-TECH Software Omniscient Code Generator (Lite mode) build 49521"
  1497  000096                     l776:
  1498                           opt subtitle "HI-TECH Software Omniscient Code Generator (Lite mode) build 49521"
  1499  000096  B680               	btfsc	((c:3968)),c,3	;volatile
  1500  000098  D001               	goto	u61
  1501  00009A  D001               	goto	u60
  1502  00009C                     u61:
  1503  00009C  D002               	goto	l94
  1504  00009E                     u60:
  1505                           opt subtitle "HI-TECH Software Omniscient Code Generator (Lite mode) build 49521"
  1506  00009E                     l96:
  1507                           opt subtitle "HI-TECH Software Omniscient Code Generator (Lite mode) build 49521"
  1508                           
  1509  00009E  8481               	bsf	((c:3969)),c,2	;volatile
  1510                           opt subtitle "HI-TECH Software Omniscient Code Generator (Lite mode) build 49521"
  1511                           
  1512  0000A0  D002               	goto	l778
  1513                           opt subtitle "HI-TECH Software Omniscient Code Generator (Lite mode) build 49521"
  1514  0000A2                     l94:
  1515                           opt subtitle "HI-TECH Software Omniscient Code Generator (Lite mode) build 49521"
  1516                           
  1517  0000A2  9481               	bcf	((c:3969)),c,2	;volatile
  1518  0000A4  D000               	goto	l778
  1519                           opt subtitle "HI-TECH Software Omniscient Code Generator (Lite mode) build 49521"
  1520                           
  1521  0000A6                     l97:
  1522                           opt subtitle "HI-TECH Software Omniscient Code Generator (Lite mode) build 49521"
  1523                           
  1524  0000A6                     l778:
  1525                           opt subtitle "HI-TECH Software Omniscient Code Generator (Lite mode) build 49521"
  1526                           
  1527  0000A6  0E00               	movlw	0
  1528  0000A8  B280               	btfsc	((c:3968)),c,1	;volatile
  1529  0000AA  0E01               	movlw	1
  1530  0000AC  6E39               	movwf	((c:?_debounce)),c
  1531  0000AE  0E00               	movlw	high((c:_BUTTON1_STATE))
  1532  0000B0  6E3B               	movwf	(1+((c:?_debounce)+01h)),c
  1533  0000B2  0E1F               	movlw	low((c:_BUTTON1_STATE))
  1534  0000B4  6E3A               	movwf	(0+((c:?_debounce)+01h)),c
  1535  0000B6  0E00               	movlw	high((c:_BUTTON1_COUNTER))
  1536  0000B8  6E3D               	movwf	(1+((c:?_debounce)+03h)),c
  1537  0000BA  0E1E               	movlw	low((c:_BUTTON1_COUNTER))
  1538  0000BC  6E3C               	movwf	(0+((c:?_debounce)+03h)),c
  1539  0000BE  ECE7  F001         	call	_debounce	;wreg free
  1540                           opt subtitle "HI-TECH Software Omniscient Code Generator (Lite mode) build 49521"
  1541                           
  1542  0000C2  0E00               	movlw	0
  1543  0000C4  B480               	btfsc	((c:3968)),c,2	;volatile
  1544  0000C6  0E01               	movlw	1
  1545  0000C8  6E39               	movwf	((c:?_debounce)),c
  1546  0000CA  0E00               	movlw	high((c:_BUTTON2_STATE))
  1547  0000CC  6E3B               	movwf	(1+((c:?_debounce)+01h)),c
  1548  0000CE  0E21               	movlw	low((c:_BUTTON2_STATE))
  1549  0000D0  6E3A               	movwf	(0+((c:?_debounce)+01h)),c
  1550  0000D2  0E00               	movlw	high((c:_BUTTON2_COUNTER))
  1551  0000D4  6E3D               	movwf	(1+((c:?_debounce)+03h)),c
  1552  0000D6  0E20               	movlw	low((c:_BUTTON2_COUNTER))
  1553  0000D8  6E3C               	movwf	(0+((c:?_debounce)+03h)),c
  1554  0000DA  ECE7  F001         	call	_debounce	;wreg free
  1555                           opt subtitle "HI-TECH Software Omniscient Code Generator (Lite mode) build 49521"
  1556                           
  1557  0000DE                     l780:
  1558                           opt subtitle "HI-TECH Software Omniscient Code Generator (Lite mode) build 49521"
  1559  0000DE  661F               	tstfsz	((c:_BUTTON1_STATE)),c
  1560  0000E0  D001               	goto	u71
  1561  0000E2  D001               	goto	u70
  1562  0000E4                     u71:
  1563  0000E4  D004               	goto	l98
  1564  0000E6                     u70:
  1565                           opt subtitle "HI-TECH Software Omniscient Code Generator (Lite mode) build 49521"
  1566                           
  1567  0000E6                     l782:
  1568                           opt subtitle "HI-TECH Software Omniscient Code Generator (Lite mode) build 49521"
  1569  0000E6  C00B  F003         	movff	0+((c:_TIMERS)+02h),0+((c:_OUTPUTS)+02h)
  1570  0000EA  C00C  F004         	movff	1+((c:_TIMERS)+02h),1+((c:_OUTPUTS)+02h)
  1571                           opt subtitle "HI-TECH Software Omniscient Code Generator (Lite mode) build 49521"
  1572                           
  1573  0000EE                     l98:
  1574                           opt subtitle "HI-TECH Software Omniscient Code Generator (Lite mode) build 49521"
  1575                           
  1576                           opt pagewidth 120
  1577  0000EE  6621               	tstfsz	((c:_BUTTON2_STATE)),c
  1578  0000F0  D001               	goto	u81
  1579  0000F2  D001               	goto	u80
  1580  0000F4                     u81:
  1581  0000F4  D005               	goto	l786
  1582  0000F6                     u80:
  1583                           opt subtitle "HI-TECH Software Omniscient Code Generator (Lite mode) build 49521"
  1584                           
  1585  0000F6                     l784:
  1586                           opt subtitle "HI-TECH Software Omniscient Code Generator (Lite mode) build 49521"
  1587  0000F6  C00D  F005         	movff	0+((c:_TIMERS)+04h),0+((c:_OUTPUTS)+04h)
  1588  0000FA  C00E  F006         	movff	1+((c:_TIMERS)+04h),1+((c:_OUTPUTS)+04h)
  1589  0000FE  D000               	goto	l786
  1590                           opt subtitle "HI-TECH Software Omniscient Code Generator (Lite mode) build 49521"
  1591                           
  1592  000100                     l99:
  1593                           opt subtitle "HI-TECH Software Omniscient Code Generator (Lite mode) build 49521"
  1594                           
  1595  000100                     l786:
  1596                           opt subtitle "HI-TECH Software Omniscient Code Generator (Lite mode) build 49521"
  1597                           
  1598  000100  0E00               	movlw	0
  1599  000102  B680               	btfsc	((c:3968)),c,3	;volatile
  1600  000104  0E01               	movlw	1
  1601  000106  6E39               	movwf	((c:?_debounce)),c
  1602  000108  0E00               	movlw	high((c:_BUTTON3_STATE))
  1603  00010A  6E3B               	movwf	(1+((c:?_debounce)+01h)),c
  1604  00010C  0E23               	movlw	low((c:_BUTTON3_STATE))
  1605  00010E  6E3A               	movwf	(0+((c:?_debounce)+01h)),c
  1606  000110  0E00               	movlw	high((c:_BUTTON3_COUNTER))
  1607  000112  6E3D               	movwf	(1+((c:?_debounce)+03h)),c
  1608  000114  0E22               	movlw	low((c:_BUTTON3_COUNTER))
  1609  000116  6E3C               	movwf	(0+((c:?_debounce)+03h)),c
  1610  000118  ECE7  F001         	call	_debounce	;wreg free
  1611  00011C  503A               	movf	(1+?_debounce),c,w
  1612  00011E  1039               	iorwf (0+?_debounce),c,w
  1613                           opt subtitle "HI-TECH Software Omniscient Code Generator (Lite mode) build 49521"
  1614  000120  B4D8               	btfsc	status,2
  1615  000122  D001               	goto	u91
  1616  000124  D001               	goto	u90
  1617  000126                     u91:
  1618  000126  D020               	goto	l798
  1619  000128                     u90:
  1620                           opt subtitle "HI-TECH Software Omniscient Code Generator (Lite mode) build 49521"
  1621                           
  1622  000128                     l788:
  1623                           opt subtitle "HI-TECH Software Omniscient Code Generator (Lite mode) build 49521"
  1624                           
  1625  000128  B680               	btfsc	((c:3968)),c,3	;volatile
  1626  00012A  D001               	goto	u101
  1627  00012C  D001               	goto	u100
  1628  00012E                     u101:
  1629  00012E  D00B               	goto	l101
  1630  000130                     u100:
  1631                           opt subtitle "HI-TECH Software Omniscient Code Generator (Lite mode) build 49521"
  1632  000130                     l790:
  1633  000130  5008               	movf	(1+((c:_OUTPUTS)+06h)),c,w
  1634  000132  1007               	iorwf (0+((c:_OUTPUTS)+06h)),c,w
  1635                           opt subtitle "HI-TECH Software Omniscient Code Generator (Lite mode) build 49521"
  1636  000134  A4D8               	btfss	status,2
  1637  000136  D001               	goto	u111
  1638  000138  D001               	goto	u110
  1639  00013A                     u111:
  1640  00013A  D005               	goto	l101
  1641  00013C                     u110:
  1642                           opt subtitle "HI-TECH Software Omniscient Code Generator (Lite mode) build 49521"
  1643                           
  1644  00013C                     l792:
  1645                           opt subtitle "HI-TECH Software Omniscient Code Generator (Lite mode) build 49521"
  1646  00013C  C00F  F007         	movff	0+((c:_TIMERS)+06h),0+((c:_OUTPUTS)+06h)
  1647  000140  C010  F008         	movff	1+((c:_TIMERS)+06h),1+((c:_OUTPUTS)+06h)
  1648                           opt subtitle "HI-TECH Software Omniscient Code Generator (Lite mode) build 49521"
  1649                           
  1650  000144  D011               	goto	l798
  1651                           opt subtitle "HI-TECH Software Omniscient Code Generator (Lite mode) build 49521"
  1652  000146                     l101:
  1653                           opt subtitle "HI-TECH Software Omniscient Code Generator (Lite mode) build 49521"
  1654                           
  1655                           opt pagewidth 120
  1656  000146  B680               	btfsc	((c:3968)),c,3	;volatile
  1657  000148  D001               	goto	u121
  1658  00014A  D001               	goto	u120
  1659  00014C                     u121:
  1660  00014C  D00D               	goto	l798
  1661  00014E                     u120:
  1662                           opt subtitle "HI-TECH Software Omniscient Code Generator (Lite mode) build 49521"
  1663  00014E                     l794:
  1664  00014E  5008               	movf	(1+((c:_OUTPUTS)+06h)),c,w
  1665  000150  1007               	iorwf (0+((c:_OUTPUTS)+06h)),c,w
  1666                           opt subtitle "HI-TECH Software Omniscient Code Generator (Lite mode) build 49521"
  1667  000152  B4D8               	btfsc	status,2
  1668  000154  D001               	goto	u131
  1669  000156  D001               	goto	u130
  1670  000158                     u131:
  1671  000158  D007               	goto	l798
  1672  00015A                     u130:
  1673                           opt subtitle "HI-TECH Software Omniscient Code Generator (Lite mode) build 49521"
  1674                           
  1675  00015A                     l796:
  1676                           opt subtitle "HI-TECH Software Omniscient Code Generator (Lite mode) build 49521"
  1677  00015A  0E00               	movlw	high(0)
  1678  00015C  6E08               	movwf	(1+((c:_OUTPUTS)+06h)),c
  1679  00015E  0E00               	movlw	low(0)
  1680  000160  6E07               	movwf	(0+((c:_OUTPUTS)+06h)),c
  1681  000162  D002               	goto	l798
  1682                           opt subtitle "HI-TECH Software Omniscient Code Generator (Lite mode) build 49521"
  1683                           
  1684  000164                     l103:
  1685  000164  D001               	goto	l798
  1686                           opt subtitle "HI-TECH Software Omniscient Code Generator (Lite mode) build 49521"
  1687                           
  1688  000166                     l102:
  1689  000166  D000               	goto	l798
  1690                           opt subtitle "HI-TECH Software Omniscient Code Generator (Lite mode) build 49521"
  1691                           
  1692  000168                     l100:
  1693                           opt subtitle "HI-TECH Software Omniscient Code Generator (Lite mode) build 49521"
  1694                           
  1695  000168                     l798:
  1696                           opt subtitle "HI-TECH Software Omniscient Code Generator (Lite mode) build 49521"
  1697                           
  1698                           opt pagewidth 120
  1699                           
  1700  000168  5004               	movf	(1+((c:_OUTPUTS)+02h)),c,w
  1701  00016A  1003               	iorwf (0+((c:_OUTPUTS)+02h)),c,w
  1702                           opt subtitle "HI-TECH Software Omniscient Code Generator (Lite mode) build 49521"
  1703  00016C  A4D8               	btfss	status,2
  1704  00016E  D001               	goto	u141
  1705  000170  D001               	goto	u140
  1706  000172                     u141:
  1707  000172  D002               	goto	l104
  1708  000174                     u140:
  1709                           opt subtitle "HI-TECH Software Omniscient Code Generator (Lite mode) build 49521"
  1710  000174                     l800:
  1711  000174  9482               	bcf	((c:3970)),c,2	;volatile
  1712  000176  D006               	goto	l802
  1713                           opt subtitle "HI-TECH Software Omniscient Code Generator (Lite mode) build 49521"
  1714  000178                     l104:
  1715  000178  8482               	bsf	((c:3970)),c,2	;volatile
  1716  00017A  C00F  F007         	movff	0+((c:_TIMERS)+06h),0+((c:_OUTPUTS)+06h)
  1717  00017E  C010  F008         	movff	1+((c:_TIMERS)+06h),1+((c:_OUTPUTS)+06h)
  1718  000182  D000               	goto	l802
  1719                           opt subtitle "HI-TECH Software Omniscient Code Generator (Lite mode) build 49521"
  1720  000184                     l105:
  1721                           opt subtitle "HI-TECH Software Omniscient Code Generator (Lite mode) build 49521"
  1722                           
  1723  000184                     l802:
  1724                           opt subtitle "HI-TECH Software Omniscient Code Generator (Lite mode) build 49521"
  1725  000184  5006               	movf	(1+((c:_OUTPUTS)+04h)),c,w
  1726  000186  1005               	iorwf (0+((c:_OUTPUTS)+04h)),c,w
  1727                           opt subtitle "HI-TECH Software Omniscient Code Generator (Lite mode) build 49521"
  1728  000188  A4D8               	btfss	status,2
  1729  00018A  D001               	goto	u151
  1730  00018C  D001               	goto	u150
  1731  00018E                     u151:
  1732  00018E  D002               	goto	l106
  1733  000190                     u150:
  1734                           opt subtitle "HI-TECH Software Omniscient Code Generator (Lite mode) build 49521"
  1735  000190                     l804:
  1736  000190  9682               	bcf	((c:3970)),c,3	;volatile
  1737  000192  D006               	goto	l806
  1738                           opt subtitle "HI-TECH Software Omniscient Code Generator (Lite mode) build 49521"
  1739  000194                     l106:
  1740  000194  8682               	bsf	((c:3970)),c,3	;volatile
  1741  000196  C00F  F007         	movff	0+((c:_TIMERS)+06h),0+((c:_OUTPUTS)+06h)
  1742  00019A  C010  F008         	movff	1+((c:_TIMERS)+06h),1+((c:_OUTPUTS)+06h)
  1743  00019E  D000               	goto	l806
  1744                           opt subtitle "HI-TECH Software Omniscient Code Generator (Lite mode) build 49521"
  1745  0001A0                     l107:
  1746                           opt subtitle "HI-TECH Software Omniscient Code Generator (Lite mode) build 49521"
  1747                           
  1748  0001A0                     l806:
  1749                           opt subtitle "HI-TECH Software Omniscient Code Generator (Lite mode) build 49521"
  1750  0001A0  5008               	movf	(1+((c:_OUTPUTS)+06h)),c,w
  1751  0001A2  1007               	iorwf (0+((c:_OUTPUTS)+06h)),c,w
  1752                           opt subtitle "HI-TECH Software Omniscient Code Generator (Lite mode) build 49521"
  1753  0001A4  A4D8               	btfss	status,2
  1754  0001A6  D001               	goto	u161
  1755  0001A8  D001               	goto	u160
  1756  0001AA                     u161:
  1757  0001AA  D006               	goto	l108
  1758  0001AC                     u160:
  1759                           opt subtitle "HI-TECH Software Omniscient Code Generator (Lite mode) build 49521"
  1760  0001AC                     l808:
  1761  0001AC  9082               	bcf	((c:3970)),c,0	;volatile
  1762                           opt subtitle "HI-TECH Software Omniscient Code Generator (Lite mode) build 49521"
  1763  0001AE                     l810:
  1764  0001AE  0E00               	movlw	high(0)
  1765  0001B0  6E46               	movwf	((c:main@lightslatch+1)),c
  1766  0001B2  0E00               	movlw	low(0)
  1767  0001B4  6E45               	movwf	((c:main@lightslatch)),c
  1768  0001B6  D751               	goto	l766
  1769                           opt subtitle "HI-TECH Software Omniscient Code Generator (Lite mode) build 49521"
  1770  0001B8                     l108:
  1771  0001B8  8082               	bsf	((c:3970)),c,0	;volatile
  1772  0001BA  D74F               	goto	l766
  1773                           opt subtitle "HI-TECH Software Omniscient Code Generator (Lite mode) build 49521"
  1774  0001BC                     l109:
  1775  0001BC  D74E               	goto	l766
  1776                           opt subtitle "HI-TECH Software Omniscient Code Generator (Lite mode) build 49521"
  1777                           
  1778  0001BE                     l110:
  1779                           opt subtitle "HI-TECH Software Omniscient Code Generator (Lite mode) build 49521"
  1780  0001BE  D74D               	goto	l766
  1781                           opt subtitle "HI-TECH Software Omniscient Code Generator (Lite mode) build 49521"
  1782  0001C0                     l111:
  1783                           opt subtitle "HI-TECH Software Omniscient Code Generator (Lite mode) build 49521"
  1784                           
  1785  0001C0                     l112:
  1786                           opt subtitle "HI-TECH Software Omniscient Code Generator (Lite mode) build 49521"
  1787  0001C0  EF0C  F000         	goto	start
  1788                           opt subtitle "HI-TECH Software Omniscient Code Generator (Lite mode) build 49521"
  1789                           
  1790  0001C4                     	__end_of_main:
  1791                           opt subtitle "HI-TECH Software Omniscient Code Generator (Lite mode) build 49521"
  1792                           
  1793                           opt pagewidth 120
  1794                           
  1795                           	opt lm
  1796                           
  1797                           	processor	18F2480
  1798                           porta	equ	0F80h
  1799                           portb	equ	0F81h
  1800                           portc	equ	0F82h
  1801                           portd	equ	0F83h
  1802                           porte	equ	0F84h
  1803                           lata	equ	0F89h
  1804                           latb	equ	0F8Ah
  1805                           latc	equ	0F8Bh
  1806                           latd	equ	0F8Ch
  1807                           late	equ	0F8Dh
  1808                           trisa	equ	0F92h
  1809                           trisb	equ	0F93h
  1810                           trisc	equ	0F94h
  1811                           trisd	equ	0F95h
  1812                           trise	equ	0F96h
  1813                           pie1	equ	0F9Dh
  1814                           pir1	equ	0F9Eh
  1815                           ipr1	equ	0F9Fh
  1816                           pie2	equ	0FA0h
  1817                           pir2	equ	0FA1h
  1818                           ipr2	equ	0FA2h
  1819                           t3con	equ	0FB1h
  1820                           tmr3l	equ	0FB2h
  1821                           tmr3h	equ	0FB3h
  1822                           ccp1con	equ	0FBDh
  1823                           ccpr1l	equ	0FBEh
  1824                           ccpr1h	equ	0FBFh
  1825  00049A                     __ptext1:
  1826                           opt subtitle "HI-TECH Software Omniscient Code Generator (Lite mode) build 49521"
  1827                           
  1828                           opt pagewidth 120
  1829                           
  1830  0000                     	__size_of_InitialiseHardware	equ	__end_of_InitialiseHardware-_InitialiseHardware
  1831                           opt subtitle "HI-TECH Software Omniscient Code Generator (Lite mode) build 49521"
  1832  00049A                     _InitialiseHardware:
  1833                           opt subtitle "HI-TECH Software Omniscient Code Generator (Lite mode) build 49521"
  1834                           
  1835                           opt pagewidth 120
  1836  00049A                     l812:
  1837                           opt subtitle "HI-TECH Software Omniscient Code Generator (Lite mode) build 49521"
  1838  00049A  0E0F               	movlw	low(0Fh)
  1839  00049C  6E92               	movwf	((c:3986)),c	;volatile
  1840                           opt subtitle "HI-TECH Software Omniscient Code Generator (Lite mode) build 49521"
  1841                           
  1842  00049E  0E00               	movlw	low(0)
  1843  0004A0  6E93               	movwf	((c:3987)),c	;volatile
  1844                           opt subtitle "HI-TECH Software Omniscient Code Generator (Lite mode) build 49521"
  1845                           
  1846  0004A2  0E00               	movlw	low(0)
  1847  0004A4  6E94               	movwf	((c:3988)),c	;volatile
  1848                           opt subtitle "HI-TECH Software Omniscient Code Generator (Lite mode) build 49521"
  1849                           
  1850  0004A6  0E00               	movlw	low(0)
  1851  0004A8  6E80               	movwf	((c:3968)),c	;volatile
  1852                           opt subtitle "HI-TECH Software Omniscient Code Generator (Lite mode) build 49521"
  1853                           
  1854  0004AA  0E00               	movlw	low(0)
  1855  0004AC  6E81               	movwf	((c:3969)),c	;volatile
  1856                           opt subtitle "HI-TECH Software Omniscient Code Generator (Lite mode) build 49521"
  1857                           
  1858  0004AE  0E00               	movlw	low(0)
  1859  0004B0  6E82               	movwf	((c:3970)),c	;volatile
  1860                           opt subtitle "HI-TECH Software Omniscient Code Generator (Lite mode) build 49521"
  1861                           
  1862  0004B2  0E0F               	movlw	low(0Fh)
  1863  0004B4  6EC1               	movwf	((c:4033)),c	;volatile
  1864                           opt subtitle "HI-TECH Software Omniscient Code Generator (Lite mode) build 49521"
  1865                           
  1866  0004B6  0EC0               	movlw	low(0C0h)
  1867  0004B8  6EF2               	movwf	((c:4082)),c	;volatile
  1868                           opt subtitle "HI-TECH Software Omniscient Code Generator (Lite mode) build 49521"
  1869                           
  1870  0004BA  0E07               	movlw	low(07h)
  1871  0004BC  6EB4               	movwf	((c:4020)),c	;volatile
  1872                           opt subtitle "HI-TECH Software Omniscient Code Generator (Lite mode) build 49521"
  1873                           
  1874  0004BE  0E02               	movlw	low(02h)
  1875  0004C0  6E9D               	movwf	((c:3997)),c	;volatile
  1876                           opt subtitle "HI-TECH Software Omniscient Code Generator (Lite mode) build 49521"
  1877                           
  1878  0004C2  0E00               	movlw	low(0)
  1879  0004C4  6E9F               	movwf	((c:3999)),c	;volatile
  1880                           opt subtitle "HI-TECH Software Omniscient Code Generator (Lite mode) build 49521"
  1881                           
  1882  0004C6                     l814:
  1883                           opt subtitle "HI-TECH Software Omniscient Code Generator (Lite mode) build 49521"
  1884  0004C6  88D3               		bsf	((c:4051)),c, 4+0	;volatile
  1885  0004C8  8AD3               	bsf	((c:4051)),c, 4+1	;volatile
  1886  0004CA  8CD3               	bsf	((c:4051)),c, 4+2	;volatile
  1887                           opt subtitle "HI-TECH Software Omniscient Code Generator (Lite mode) build 49521"
  1888                           
  1889                           opt pagewidth 120
  1890  0004CC                     l816:
  1891                           opt subtitle "HI-TECH Software Omniscient Code Generator (Lite mode) build 49521"
  1892  0004CC  6E3A               	movwf	(??_InitialiseHardware+0+0)&0ffh,c
  1893  0004CE  0E8D               	movlw	low(08Dh)
  1894  0004D0  6E39               	movwf	((c:?_OpenTimer2)),c
  1895  0004D2  503A               	movf	(??_InitialiseHardware+0+0)&0ffh,c,w
  1896  0004D4  EC6F  F002         	call	_OpenTimer2	;wreg free
  1897                           opt subtitle "HI-TECH Software Omniscient Code Generator (Lite mode) build 49521"
  1898                           
  1899  0004D8                     l818:
  1900                           opt subtitle "HI-TECH Software Omniscient Code Generator (Lite mode) build 49521"
  1901  0004D8  0EFA               	movlw	low(0FAh)
  1902  0004DA  6ECB               	movwf	((c:4043)),c	;volatile
  1903                           opt subtitle "HI-TECH Software Omniscient Code Generator (Lite mode) build 49521"
  1904                           
  1905  0004DC                     l115:
  1906  0004DC  0012               	return
  1907                           opt subtitle "HI-TECH Software Omniscient Code Generator (Lite mode) build 49521"
  1908                           
  1909  0004DE                     	__end_of_InitialiseHardware:
  1910                           opt subtitle "HI-TECH Software Omniscient Code Generator (Lite mode) build 49521"
  1911                           
  1912                           opt pagewidth 120
  1913                           
  1914                           	opt lm
  1915                           
  1916                           	processor	18F2480
  1917                           porta	equ	0F80h
  1918                           portb	equ	0F81h
  1919                           portc	equ	0F82h
  1920                           portd	equ	0F83h
  1921                           porte	equ	0F84h
  1922                           lata	equ	0F89h
  1923                           latb	equ	0F8Ah
  1924                           latc	equ	0F8Bh
  1925                           latd	equ	0F8Ch
  1926                           late	equ	0F8Dh
  1927                           trisa	equ	0F92h
  1928                           trisb	equ	0F93h
  1929                           trisc	equ	0F94h
  1930                           trisd	equ	0F95h
  1931                           trise	equ	0F96h
  1932                           pie1	equ	0F9Dh
  1933                           pir1	equ	0F9Eh
  1934                           ipr1	equ	0F9Fh
  1935                           pie2	equ	0FA0h
  1936                           pir2	equ	0FA1h
  1937                           ipr2	equ	0FA2h
  1938                           t3con	equ	0FB1h
  1939                           tmr3l	equ	0FB2h
  1940                           tmr3h	equ	0FB3h
  1941                           ccp1con	equ	0FBDh
  1942                           ccpr1l	equ	0FBEh
  1943                           ccpr1h	equ	0FBFh
  1944  0002FC                     __ptext2:
  1945                           opt subtitle "HI-TECH Software Omniscient Code Generator (Lite mode) build 49521"
  1946                           
  1947                           opt pagewidth 120
  1948                           
  1949  0000                     	__size_of_InitialiseGlobals	equ	__end_of_InitialiseGlobals-_InitialiseGlobals
  1950                           opt subtitle "HI-TECH Software Omniscient Code Generator (Lite mode) build 49521"
  1951  0002FC                     _InitialiseGlobals:
  1952                           opt subtitle "HI-TECH Software Omniscient Code Generator (Lite mode) build 49521"
  1953                           
  1954                           opt pagewidth 120
  1955  0002FC                     l820:
  1956                           opt subtitle "HI-TECH Software Omniscient Code Generator (Lite mode) build 49521"
  1957  0002FC  0E00               	movlw	high(0)
  1958  0002FE  6E3C               	movwf	((c:InitialiseGlobals@i+1)),c
  1959  000300  0E00               	movlw	low(0)
  1960  000302  6E3B               	movwf	((c:InitialiseGlobals@i)),c
  1961                           opt subtitle "HI-TECH Software Omniscient Code Generator (Lite mode) build 49521"
  1962                           
  1963  000304  0E00               	movlw	high(0)
  1964  000306  6E3C               	movwf	((c:InitialiseGlobals@i+1)),c
  1965  000308  0E00               	movlw	low(0)
  1966  00030A  6E3B               	movwf	((c:InitialiseGlobals@i)),c
  1967                           opt subtitle "HI-TECH Software Omniscient Code Generator (Lite mode) build 49521"
  1968  00030C                     l822:
  1969  00030C  503C               	movf	((c:InitialiseGlobals@i+1)),c,w
  1970  00030E  0A80               	xorlw	80h
  1971  000310  0F80               	addlw	-((0)^80h)
  1972  000312  0E04               	movlw	04h
  1973  000314  B4D8               	btfsc	status,2
  1974  000316  5C3B               	subwf	((c:InitialiseGlobals@i)),c,w
  1975  000318  A0D8               	btfss	status,0
  1976  00031A  D001               	goto	u171
  1977  00031C  D001               	goto	u170
  1978  00031E                     u171:
  1979  00031E  D002               	goto	l826
  1980  000320                     u170:
  1981  000320  D01D               	goto	l832
  1982                           opt subtitle "HI-TECH Software Omniscient Code Generator (Lite mode) build 49521"
  1983  000322                     l824:
  1984  000322  D01C               	goto	l832
  1985                           opt subtitle "HI-TECH Software Omniscient Code Generator (Lite mode) build 49521"
  1986  000324                     l118:
  1987                           opt subtitle "HI-TECH Software Omniscient Code Generator (Lite mode) build 49521"
  1988                           
  1989  000324                     l826:
  1990                           opt subtitle "HI-TECH Software Omniscient Code Generator (Lite mode) build 49521"
  1991  000324  90D8               	bcf	status,0
  1992  000326  343B               	rlcf	((c:InitialiseGlobals@i)),c,w
  1993  000328  6E39               	movwf	(??_InitialiseGlobals+0+0)&0ffh,c
  1994  00032A  343C               	rlcf	((c:InitialiseGlobals@i+1)),c,w
  1995  00032C  6E3A               	movwf	1+(??_InitialiseGlobals+0+0)&0ffh,c
  1996  00032E  0E01               	movlw	low((c:_OUTPUTS))
  1997  000330  2439               	addwf	(??_InitialiseGlobals+0+0),c,w
  1998  000332  6ED9               	movwf	c:fsr2l
  1999  000334  0E00               	movlw	high((c:_OUTPUTS))
  2000  000336  203A               	addwfc	(??_InitialiseGlobals+0+1),c,w
  2001  000338  6EDA               	movwf	1+c:fsr2l
  2002  00033A  0E00               	movlw	low(0)
  2003  00033C  6EDE               	movwf	postinc2
  2004  00033E  0E00               	movlw	high(0)
  2005  000340  6EDD               	movwf	postdec2
  2006                           opt subtitle "HI-TECH Software Omniscient Code Generator (Lite mode) build 49521"
  2007                           
  2008  000342                     l828:
  2009  000342  4A3B               	infsnz	((c:InitialiseGlobals@i)),c
  2010  000344  2A3C               	incf	((c:InitialiseGlobals@i+1)),c
  2011                           opt subtitle "HI-TECH Software Omniscient Code Generator (Lite mode) build 49521"
  2012  000346                     l830:
  2013  000346  503C               	movf	((c:InitialiseGlobals@i+1)),c,w
  2014  000348  0A80               	xorlw	80h
  2015  00034A  0F80               	addlw	-((0)^80h)
  2016  00034C  0E04               	movlw	04h
  2017  00034E  B4D8               	btfsc	status,2
  2018  000350  5C3B               	subwf	((c:InitialiseGlobals@i)),c,w
  2019  000352  A0D8               	btfss	status,0
  2020  000354  D001               	goto	u181
  2021  000356  D001               	goto	u180
  2022  000358                     u181:
  2023  000358  D7E5               	goto	l826
  2024  00035A                     u180:
  2025  00035A  D000               	goto	l832
  2026                           opt subtitle "HI-TECH Software Omniscient Code Generator (Lite mode) build 49521"
  2027  00035C                     l119:
  2028                           opt subtitle "HI-TECH Software Omniscient Code Generator (Lite mode) build 49521"
  2029                           
  2030  00035C                     l832:
  2031                           opt subtitle "HI-TECH Software Omniscient Code Generator (Lite mode) build 49521"
  2032                           
  2033  00035C  6E39               	movwf	(??_InitialiseGlobals+0+0)&0ffh,c
  2034  00035E  0E00               	movlw	low(0)
  2035  000360  6E1A               	movwf	((c:_LoopCounter)),c
  2036  000362  5039               	movf	(??_InitialiseGlobals+0+0)&0ffh,c,w
  2037                           opt subtitle "HI-TECH Software Omniscient Code Generator (Lite mode) build 49521"
  2038                           
  2039  000364  6E39               	movwf	(??_InitialiseGlobals+0+0)&0ffh,c
  2040  000366  0E01               	movlw	low(01h)
  2041  000368  6E1F               	movwf	((c:_BUTTON1_STATE)),c
  2042  00036A  5039               	movf	(??_InitialiseGlobals+0+0)&0ffh,c,w
  2043                           opt subtitle "HI-TECH Software Omniscient Code Generator (Lite mode) build 49521"
  2044                           
  2045  00036C  6E39               	movwf	(??_InitialiseGlobals+0+0)&0ffh,c
  2046  00036E  0E01               	movlw	low(01h)
  2047  000370  6E17               	movwf	((c:_BUTTON1_PREV)),c
  2048  000372  5039               	movf	(??_InitialiseGlobals+0+0)&0ffh,c,w
  2049                           opt subtitle "HI-TECH Software Omniscient Code Generator (Lite mode) build 49521"
  2050                           
  2051  000374  6E39               	movwf	(??_InitialiseGlobals+0+0)&0ffh,c
  2052  000376  0E00               	movlw	low(0)
  2053  000378  6E1E               	movwf	((c:_BUTTON1_COUNTER)),c
  2054  00037A  5039               	movf	(??_InitialiseGlobals+0+0)&0ffh,c,w
  2055                           opt subtitle "HI-TECH Software Omniscient Code Generator (Lite mode) build 49521"
  2056                           
  2057  00037C  6E39               	movwf	(??_InitialiseGlobals+0+0)&0ffh,c
  2058  00037E  0E01               	movlw	low(01h)
  2059  000380  6E21               	movwf	((c:_BUTTON2_STATE)),c
  2060  000382  5039               	movf	(??_InitialiseGlobals+0+0)&0ffh,c,w
  2061                           opt subtitle "HI-TECH Software Omniscient Code Generator (Lite mode) build 49521"
  2062                           
  2063  000384  6E39               	movwf	(??_InitialiseGlobals+0+0)&0ffh,c
  2064  000386  0E01               	movlw	low(01h)
  2065  000388  6E18               	movwf	((c:_BUTTON2_PREV)),c
  2066  00038A  5039               	movf	(??_InitialiseGlobals+0+0)&0ffh,c,w
  2067                           opt subtitle "HI-TECH Software Omniscient Code Generator (Lite mode) build 49521"
  2068                           
  2069  00038C  6E39               	movwf	(??_InitialiseGlobals+0+0)&0ffh,c
  2070  00038E  0E00               	movlw	low(0)
  2071  000390  6E20               	movwf	((c:_BUTTON2_COUNTER)),c
  2072  000392  5039               	movf	(??_InitialiseGlobals+0+0)&0ffh,c,w
  2073                           opt subtitle "HI-TECH Software Omniscient Code Generator (Lite mode) build 49521"
  2074                           
  2075  000394  6E39               	movwf	(??_InitialiseGlobals+0+0)&0ffh,c
  2076  000396  0E01               	movlw	low(01h)
  2077  000398  6E23               	movwf	((c:_BUTTON3_STATE)),c
  2078  00039A  5039               	movf	(??_InitialiseGlobals+0+0)&0ffh,c,w
  2079                           opt subtitle "HI-TECH Software Omniscient Code Generator (Lite mode) build 49521"
  2080                           
  2081  00039C  6E39               	movwf	(??_InitialiseGlobals+0+0)&0ffh,c
  2082  00039E  0E01               	movlw	low(01h)
  2083  0003A0  6E19               	movwf	((c:_BUTTON3_PREV)),c
  2084  0003A2  5039               	movf	(??_InitialiseGlobals+0+0)&0ffh,c,w
  2085                           opt subtitle "HI-TECH Software Omniscient Code Generator (Lite mode) build 49521"
  2086                           
  2087  0003A4  6E39               	movwf	(??_InitialiseGlobals+0+0)&0ffh,c
  2088  0003A6  0E00               	movlw	low(0)
  2089  0003A8  6E22               	movwf	((c:_BUTTON3_COUNTER)),c
  2090  0003AA  5039               	movf	(??_InitialiseGlobals+0+0)&0ffh,c,w
  2091                           opt subtitle "HI-TECH Software Omniscient Code Generator (Lite mode) build 49521"
  2092                           
  2093  0003AC                     l834:
  2094                           opt subtitle "HI-TECH Software Omniscient Code Generator (Lite mode) build 49521"
  2095  0003AC  0E01               	movlw	high(012Ch)
  2096  0003AE  6E0A               	movwf	((c:_TIMERS+1)),c
  2097  0003B0  0E2C               	movlw	low(012Ch)
  2098  0003B2  6E09               	movwf	((c:_TIMERS)),c
  2099                           opt subtitle "HI-TECH Software Omniscient Code Generator (Lite mode) build 49521"
  2100                           
  2101  0003B4                     l836:
  2102                           opt subtitle "HI-TECH Software Omniscient Code Generator (Lite mode) build 49521"
  2103  0003B4  0E00               	movlw	high(01h)
  2104  0003B6  6E0C               	movwf	(1+((c:_TIMERS)+02h)),c
  2105  0003B8  0E01               	movlw	low(01h)
  2106  0003BA  6E0B               	movwf	(0+((c:_TIMERS)+02h)),c
  2107                           opt subtitle "HI-TECH Software Omniscient Code Generator (Lite mode) build 49521"
  2108                           
  2109  0003BC                     l838:
  2110                           opt subtitle "HI-TECH Software Omniscient Code Generator (Lite mode) build 49521"
  2111  0003BC  0E00               	movlw	high(01h)
  2112  0003BE  6E0E               	movwf	(1+((c:_TIMERS)+04h)),c
  2113  0003C0  0E01               	movlw	low(01h)
  2114  0003C2  6E0D               	movwf	(0+((c:_TIMERS)+04h)),c
  2115                           opt subtitle "HI-TECH Software Omniscient Code Generator (Lite mode) build 49521"
  2116                           
  2117  0003C4                     l840:
  2118                           opt subtitle "HI-TECH Software Omniscient Code Generator (Lite mode) build 49521"
  2119  0003C4  0E01               	movlw	high(012Ch)
  2120  0003C6  6E10               	movwf	(1+((c:_TIMERS)+06h)),c
  2121  0003C8  0E2C               	movlw	low(012Ch)
  2122  0003CA  6E0F               	movwf	(0+((c:_TIMERS)+06h)),c
  2123                           opt subtitle "HI-TECH Software Omniscient Code Generator (Lite mode) build 49521"
  2124                           
  2125  0003CC                     l120:
  2126  0003CC  0012               	return
  2127                           opt subtitle "HI-TECH Software Omniscient Code Generator (Lite mode) build 49521"
  2128                           
  2129  0003CE                     	__end_of_InitialiseGlobals:
  2130                           opt subtitle "HI-TECH Software Omniscient Code Generator (Lite mode) build 49521"
  2131                           
  2132                           opt pagewidth 120
  2133                           
  2134                           	opt lm
  2135                           
  2136                           	processor	18F2480
  2137                           porta	equ	0F80h
  2138                           portb	equ	0F81h
  2139                           portc	equ	0F82h
  2140                           portd	equ	0F83h
  2141                           porte	equ	0F84h
  2142                           lata	equ	0F89h
  2143                           latb	equ	0F8Ah
  2144                           latc	equ	0F8Bh
  2145                           latd	equ	0F8Ch
  2146                           late	equ	0F8Dh
  2147                           trisa	equ	0F92h
  2148                           trisb	equ	0F93h
  2149                           trisc	equ	0F94h
  2150                           trisd	equ	0F95h
  2151                           trise	equ	0F96h
  2152                           pie1	equ	0F9Dh
  2153                           pir1	equ	0F9Eh
  2154                           ipr1	equ	0F9Fh
  2155                           pie2	equ	0FA0h
  2156                           pir2	equ	0FA1h
  2157                           ipr2	equ	0FA2h
  2158                           t3con	equ	0FB1h
  2159                           tmr3l	equ	0FB2h
  2160                           tmr3h	equ	0FB3h
  2161                           ccp1con	equ	0FBDh
  2162                           ccpr1l	equ	0FBEh
  2163                           ccpr1h	equ	0FBFh
  2164                           adcon1	equ	0FC1h
  2165                           adcon0	equ	0FC2h
  2166                           adresl	equ	0FC3h
  2167                           adresh	equ	0FC4h
  2168  0003CE                     __ptext3:
  2169                           opt subtitle "HI-TECH Software Omniscient Code Generator (Lite mode) build 49521"
  2170                           
  2171                           opt pagewidth 120
  2172                           
  2173  0000                     	__size_of_debounce	equ	__end_of_debounce-_debounce
  2174                           opt subtitle "HI-TECH Software Omniscient Code Generator (Lite mode) build 49521"
  2175  0003CE                     _debounce:
  2176                           opt subtitle "HI-TECH Software Omniscient Code Generator (Lite mode) build 49521"
  2177                           
  2178                           opt pagewidth 120
  2179  0003CE                     l842:
  2180                           opt subtitle "HI-TECH Software Omniscient Code Generator (Lite mode) build 49521"
  2181  0003CE  C03A  FFD9         	movff	(c:debounce@state),fsr2l
  2182  0003D2  C03B  FFDA         	movff	(c:debounce@state+1),fsr2h
  2183  0003D6  50DF               	movf	indf2,w
  2184  0003D8  1839               	xorwf	((c:debounce@test)),c,w
  2185  0003DA  B4D8               	btfsc	status,2
  2186  0003DC  D001               	goto	u191
  2187  0003DE  D001               	goto	u190
  2188  0003E0                     u191:
  2189  0003E0  D021               	goto	l856
  2190  0003E2                     u190:
  2191                           opt subtitle "HI-TECH Software Omniscient Code Generator (Lite mode) build 49521"
  2192                           
  2193  0003E2                     l844:
  2194                           opt subtitle "HI-TECH Software Omniscient Code Generator (Lite mode) build 49521"
  2195  0003E2  C03C  FFD9         	movff	(c:debounce@counter),fsr2l
  2196  0003E6  C03D  FFDA         	movff	(c:debounce@counter+1),fsr2h
  2197  0003EA  2ADF               	incf	indf2
  2198                           opt subtitle "HI-TECH Software Omniscient Code Generator (Lite mode) build 49521"
  2199                           
  2200                           opt pagewidth 120
  2201  0003EC                     l846:
  2202                           opt subtitle "HI-TECH Software Omniscient Code Generator (Lite mode) build 49521"
  2203  0003EC  C03C  FFD9         	movff	(c:debounce@counter),fsr2l
  2204  0003F0  C03D  FFDA         	movff	(c:debounce@counter+1),fsr2h
  2205  0003F4  0E63               	movlw	(064h-1)
  2206  0003F6  64DF               	cpfsgt	indf2
  2207  0003F8  D001               	goto	u201
  2208  0003FA  D001               	goto	u200
  2209  0003FC                     u201:
  2210  0003FC  D01A               	goto	l858
  2211  0003FE                     u200:
  2212                           opt subtitle "HI-TECH Software Omniscient Code Generator (Lite mode) build 49521"
  2213                           
  2214  0003FE                     l848:
  2215                           opt subtitle "HI-TECH Software Omniscient Code Generator (Lite mode) build 49521"
  2216  0003FE  C03C  FFD9         	movff	(c:debounce@counter),fsr2l
  2217  000402  C03D  FFDA         	movff	(c:debounce@counter+1),fsr2h
  2218  000406  0E00               	movlw	low(0)
  2219  000408  6EDF               	movwf	indf2
  2220                           opt subtitle "HI-TECH Software Omniscient Code Generator (Lite mode) build 49521"
  2221                           
  2222  00040A                     l850:
  2223                           opt subtitle "HI-TECH Software Omniscient Code Generator (Lite mode) build 49521"
  2224  00040A  C03A  FFD9         	movff	(c:debounce@state),fsr2l
  2225  00040E  C03B  FFDA         	movff	(c:debounce@state+1),fsr2h
  2226  000412  C039  FFDF         	movff	(c:debounce@test),indf2
  2227                           opt subtitle "HI-TECH Software Omniscient Code Generator (Lite mode) build 49521"
  2228                           
  2229                           opt pagewidth 120
  2230  000416                     l852:
  2231                           opt subtitle "HI-TECH Software Omniscient Code Generator (Lite mode) build 49521"
  2232  000416  0E00               	movlw	high(01h)
  2233  000418  6E3A               	movwf	((c:?_debounce+1)),c
  2234  00041A  0E01               	movlw	low(01h)
  2235  00041C  6E39               	movwf	((c:?_debounce)),c
  2236  00041E  D00E               	goto	l125
  2237                           opt subtitle "HI-TECH Software Omniscient Code Generator (Lite mode) build 49521"
  2238  000420                     l854:
  2239  000420  D00D               	goto	l125
  2240                           opt subtitle "HI-TECH Software Omniscient Code Generator (Lite mode) build 49521"
  2241                           
  2242  000422                     l124:
  2243                           opt subtitle "HI-TECH Software Omniscient Code Generator (Lite mode) build 49521"
  2244                           
  2245                           opt pagewidth 120
  2246  000422  D007               	goto	l858
  2247                           opt subtitle "HI-TECH Software Omniscient Code Generator (Lite mode) build 49521"
  2248  000424                     l123:
  2249                           opt subtitle "HI-TECH Software Omniscient Code Generator (Lite mode) build 49521"
  2250                           
  2251  000424                     l856:
  2252                           opt subtitle "HI-TECH Software Omniscient Code Generator (Lite mode) build 49521"
  2253  000424  C03C  FFD9         	movff	(c:debounce@counter),fsr2l
  2254  000428  C03D  FFDA         	movff	(c:debounce@counter+1),fsr2h
  2255  00042C  0E00               	movlw	low(0)
  2256  00042E  6EDF               	movwf	indf2
  2257  000430  D000               	goto	l858
  2258                           opt subtitle "HI-TECH Software Omniscient Code Generator (Lite mode) build 49521"
  2259                           
  2260  000432                     l126:
  2261                           opt subtitle "HI-TECH Software Omniscient Code Generator (Lite mode) build 49521"
  2262                           
  2263  000432                     l858:
  2264                           opt subtitle "HI-TECH Software Omniscient Code Generator (Lite mode) build 49521"
  2265                           
  2266  000432  0E00               	movlw	high(0)
  2267  000434  6E3A               	movwf	((c:?_debounce+1)),c
  2268  000436  0E00               	movlw	low(0)
  2269  000438  6E39               	movwf	((c:?_debounce)),c
  2270  00043A  D000               	goto	l125
  2271                           opt subtitle "HI-TECH Software Omniscient Code Generator (Lite mode) build 49521"
  2272  00043C                     l860:
  2273                           opt subtitle "HI-TECH Software Omniscient Code Generator (Lite mode) build 49521"
  2274                           
  2275  00043C                     l125:
  2276  00043C  0012               	return
  2277                           opt subtitle "HI-TECH Software Omniscient Code Generator (Lite mode) build 49521"
  2278                           
  2279  00043E                     	__end_of_debounce:
  2280                           opt subtitle "HI-TECH Software Omniscient Code Generator (Lite mode) build 49521"
  2281                           
  2282                           opt pagewidth 120
  2283                           
  2284                           	opt lm
  2285                           
  2286                           	processor	18F2480
  2287                           porta	equ	0F80h
  2288                           portb	equ	0F81h
  2289                           portc	equ	0F82h
  2290                           portd	equ	0F83h
  2291                           porte	equ	0F84h
  2292                           lata	equ	0F89h
  2293                           latb	equ	0F8Ah
  2294                           latc	equ	0F8Bh
  2295                           latd	equ	0F8Ch
  2296                           late	equ	0F8Dh
  2297                           trisa	equ	0F92h
  2298                           trisb	equ	0F93h
  2299                           trisc	equ	0F94h
  2300                           trisd	equ	0F95h
  2301                           trise	equ	0F96h
  2302                           pie1	equ	0F9Dh
  2303                           pir1	equ	0F9Eh
  2304                           ipr1	equ	0F9Fh
  2305                           pie2	equ	0FA0h
  2306                           pir2	equ	0FA1h
  2307                           ipr2	equ	0FA2h
  2308                           t3con	equ	0FB1h
  2309                           tmr3l	equ	0FB2h
  2310                           tmr3h	equ	0FB3h
  2311                           ccp1con	equ	0FBDh
  2312                           ccpr1l	equ	0FBEh
  2313                           ccpr1h	equ	0FBFh
  2314  0004DE                     __ptext4:
  2315                           opt subtitle "HI-TECH Software Omniscient Code Generator (Lite mode) build 49521"
  2316                           
  2317                           opt pagewidth 120
  2318                           
  2319  0000                     	__size_of_OpenTimer2	equ	__end_of_OpenTimer2-_OpenTimer2
  2320                           opt subtitle "HI-TECH Software Omniscient Code Generator (Lite mode) build 49521"
  2321  0004DE                     _OpenTimer2:
  2322                           opt subtitle "HI-TECH Software Omniscient Code Generator (Lite mode) build 49521"
  2323                           
  2324                           opt pagewidth 120
  2325  0004DE                     l862:
  2326  0004DE  5039               	movf	((c:OpenTimer2@config)),c,w
  2327  0004E0  0BFB               	andlw	low(0FBh)
  2328  0004E2  6ECA               	movwf	((c:4042)),c	;volatile
  2329                           opt subtitle "HI-TECH Software Omniscient Code Generator (Lite mode) build 49521"
  2330                           
  2331  0004E4                     l864:
  2332  0004E4  0E00               	movlw	low(0)
  2333  0004E6  6ECC               	movwf	((c:4044)),c	;volatile
  2334                           opt subtitle "HI-TECH Software Omniscient Code Generator (Lite mode) build 49521"
  2335                           
  2336  0004E8                     l866:
  2337  0004E8  929E               	bcf	((c:3998)),c,1	;volatile
  2338                           opt subtitle "HI-TECH Software Omniscient Code Generator (Lite mode) build 49521"
  2339                           
  2340  0004EA                     l868:
  2341                           opt subtitle "HI-TECH Software Omniscient Code Generator (Lite mode) build 49521"
  2342  0004EA  AE39               	btfss	((c:OpenTimer2@config)),c,(7)&7
  2343  0004EC  D001               	goto	u211
  2344  0004EE  D001               	goto	u210
  2345  0004F0                     u211:
  2346  0004F0  D002               	goto	l139
  2347  0004F2                     u210:
  2348                           opt subtitle "HI-TECH Software Omniscient Code Generator (Lite mode) build 49521"
  2349                           
  2350  0004F2                     l870:
  2351  0004F2  829D               	bsf	((c:3997)),c,1	;volatile
  2352  0004F4  D001               	goto	l140
  2353                           opt subtitle "HI-TECH Software Omniscient Code Generator (Lite mode) build 49521"
  2354                           
  2355  0004F6                     l139:
  2356                           opt subtitle "HI-TECH Software Omniscient Code Generator (Lite mode) build 49521"
  2357  0004F6  929D               	bcf	((c:3997)),c,1	;volatile
  2358                           opt subtitle "HI-TECH Software Omniscient Code Generator (Lite mode) build 49521"
  2359  0004F8                     l140:
  2360                           opt subtitle "HI-TECH Software Omniscient Code Generator (Lite mode) build 49521"
  2361  0004F8  84CA               	bsf	((c:4042)),c,2	;volatile
  2362                           opt subtitle "HI-TECH Software Omniscient Code Generator (Lite mode) build 49521"
  2363                           
  2364  0004FA                     l141:
  2365  0004FA  0012               	return
  2366                           opt subtitle "HI-TECH Software Omniscient Code Generator (Lite mode) build 49521"
  2367                           
  2368  0004FC                     	__end_of_OpenTimer2:
  2369                           opt subtitle "HI-TECH Software Omniscient Code Generator (Lite mode) build 49521"
  2370                           
  2371                           opt pagewidth 120
  2372                           
  2373                           	opt lm
  2374                           
  2375                           	processor	18F2480
  2376                           porta	equ	0F80h
  2377                           portb	equ	0F81h
  2378                           portc	equ	0F82h
  2379                           portd	equ	0F83h
  2380                           porte	equ	0F84h
  2381                           lata	equ	0F89h
  2382                           latb	equ	0F8Ah
  2383                           latc	equ	0F8Bh
  2384                           latd	equ	0F8Ch
  2385                           late	equ	0F8Dh
  2386                           trisa	equ	0F92h
  2387                           trisb	equ	0F93h
  2388                           trisc	equ	0F94h
  2389                           trisd	equ	0F95h
  2390                           trise	equ	0F96h
  2391                           pie1	equ	0F9Dh
  2392                           pir1	equ	0F9Eh
  2393                           ipr1	equ	0F9Fh
  2394                           pie2	equ	0FA0h
  2395                           pir2	equ	0FA1h
  2396                           ipr2	equ	0FA2h
  2397                           t3con	equ	0FB1h
  2398                           tmr3l	equ	0FB2h
  2399                           tmr3h	equ	0FB3h
  2400                           ccp1con	equ	0FBDh
  2401                           ccpr1l	equ	0FBEh
  2402                           ccpr1h	equ	0FBFh
  2403  000008                     __pintcode:
  2404                           opt subtitle "HI-TECH Software Omniscient Code Generator (Lite mode) build 49521"
  2405                           
  2406                           opt pagewidth 120
  2407                           
  2408  0000                     	__size_of_isr	equ	__end_of_isr-_isr
  2409                           opt subtitle "HI-TECH Software Omniscient Code Generator (Lite mode) build 49521"
  2410  000008                     _isr:
  2411                           opt subtitle "HI-TECH Software Omniscient Code Generator (Lite mode) build 49521"
  2412  000008  CFFA F02B          	movff	pclat+0,??_isr+1
  2413  00000C  CFFB F02C          	movff	pclat+1,??_isr+2
  2414  000010  CFE9 F02D          	movff	fsr0l+0,??_isr+3
  2415                           opt subtitle "HI-TECH Software Omniscient Code Generator (Lite mode) build 49521"
  2416  000014  EDE2  F000         	call	int_func,f	;refresh shadow registers
  2417                           opt subtitle "HI-TECH Software Omniscient Code Generator (Lite mode) build 49521"
  2418                           
  2419  0001C4                     __pintcode_body:
  2420  0001C4                     int_func:
  2421                           opt subtitle "HI-TECH Software Omniscient Code Generator (Lite mode) build 49521"
  2422  0001C4  0006               	pop	; remove dummy address from shadow register refresh
  2423  0001C6  CFEA F02E          	movff	fsr0h+0,??_isr+4
  2424  0001CA  CFE1 F02F          	movff	fsr1l+0,??_isr+5
  2425  0001CE  CFE2 F030          	movff	fsr1h+0,??_isr+6
  2426  0001D2  CFD9 F031          	movff	fsr2l+0,??_isr+7
  2427  0001D6  CFDA F032          	movff	fsr2h+0,??_isr+8
  2428  0001DA  CFF3 F033          	movff	prodl+0,??_isr+9
  2429  0001DE  CFF4 F034          	movff	prodh+0,??_isr+10
  2430  0001E2  CFF6 F035          	movff	tblptrl+0,??_isr+11
  2431  0001E6  CFF7 F036          	movff	tblptrh+0,??_isr+12
  2432  0001EA  CFF8 F037          	movff	tblptru+0,??_isr+13
  2433  0001EE  CFF5 F038          	movff	tablat+0,??_isr+14
  2434                           opt subtitle "HI-TECH Software Omniscient Code Generator (Lite mode) build 49521"
  2435                           
  2436  0001F2                     i2l888:
  2437                           opt subtitle "HI-TECH Software Omniscient Code Generator (Lite mode) build 49521"
  2438                           
  2439  0001F2  A29E               	btfss	((c:3998)),c,1	;volatile
  2440  0001F4  D001               	goto	i2u25_41
  2441  0001F6  D001               	goto	i2u25_40
  2442  0001F8                     i2u25_41:
  2443  0001F8  D064               	goto	i2l86
  2444  0001FA                     i2u25_40:
  2445                           opt subtitle "HI-TECH Software Omniscient Code Generator (Lite mode) build 49521"
  2446                           
  2447  0001FA                     i2l890:
  2448                           opt subtitle "HI-TECH Software Omniscient Code Generator (Lite mode) build 49521"
  2449  0001FA  4A15               	infsnz	((c:_Tms)),c
  2450  0001FC  2A16               	incf	((c:_Tms+1)),c
  2451                           opt subtitle "HI-TECH Software Omniscient Code Generator (Lite mode) build 49521"
  2452                           
  2453  0001FE                     i2l892:
  2454                           opt subtitle "HI-TECH Software Omniscient Code Generator (Lite mode) build 49521"
  2455  0001FE  C015  F024         	movff	(c:_Tms),(c:?___lwmod)
  2456  000202  C016  F025         	movff	(c:_Tms+1),(c:?___lwmod+1)
  2457  000206  0E00               	movlw	high(0Ah)
  2458  000208  6E27               	movwf	(1+((c:?___lwmod)+02h)),c
  2459  00020A  0E0A               	movlw	low(0Ah)
  2460  00020C  6E26               	movwf	(0+((c:?___lwmod)+02h)),c
  2461  00020E  EC1F  F002         	call	___lwmod	;wreg free
  2462  000212  5025               	movf	(1+?___lwmod),c,w
  2463  000214  1024               	iorwf (0+?___lwmod),c,w
  2464                           opt subtitle "HI-TECH Software Omniscient Code Generator (Lite mode) build 49521"
  2465  000216  A4D8               	btfss	status,2
  2466  000218  D001               	goto	i2u26_41
  2467  00021A  D001               	goto	i2u26_40
  2468  00021C                     i2u26_41:
  2469  00021C  D005               	goto	i2l896
  2470  00021E                     i2u26_40:
  2471                           opt subtitle "HI-TECH Software Omniscient Code Generator (Lite mode) build 49521"
  2472                           
  2473  00021E                     i2l894:
  2474                           opt subtitle "HI-TECH Software Omniscient Code Generator (Lite mode) build 49521"
  2475                           
  2476  00021E  6E2A               	movwf	(??_isr+0+0)&0ffh,c
  2477  000220  0E01               	movlw	low(01h)
  2478  000222  6E1D               	movwf	((c:_read)),c
  2479  000224  502A               	movf	(??_isr+0+0)&0ffh,c,w
  2480  000226  D000               	goto	i2l896
  2481                           opt subtitle "HI-TECH Software Omniscient Code Generator (Lite mode) build 49521"
  2482                           
  2483  000228                     i2l80:
  2484                           opt subtitle "HI-TECH Software Omniscient Code Generator (Lite mode) build 49521"
  2485                           
  2486  000228                     i2l896:
  2487                           opt subtitle "HI-TECH Software Omniscient Code Generator (Lite mode) build 49521"
  2488                           
  2489  000228  0416               	decf	((c:_Tms+1)),c,w
  2490  00022A  0EF4               	movlw	244
  2491  00022C  B4D8               	btfsc	status,2
  2492  00022E  1815               	xorwf ((c:_Tms)),c,w
  2493                           opt subtitle "HI-TECH Software Omniscient Code Generator (Lite mode) build 49521"
  2494  000230  A4D8               	btfss	status,2
  2495  000232  D001               	goto	i2u27_41
  2496  000234  D001               	goto	i2u27_40
  2497  000236                     i2u27_41:
  2498  000236  D005               	goto	i2l900
  2499  000238                     i2u27_40:
  2500                           opt subtitle "HI-TECH Software Omniscient Code Generator (Lite mode) build 49521"
  2501                           
  2502  000238                     i2l898:
  2503                           opt subtitle "HI-TECH Software Omniscient Code Generator (Lite mode) build 49521"
  2504  000238  6E2A               	movwf	(??_isr+0+0)&0ffh,c
  2505  00023A  0E01               	movlw	low(01h)
  2506  00023C  6E1C               	movwf	((c:_blink)),c
  2507  00023E  502A               	movf	(??_isr+0+0)&0ffh,c,w
  2508  000240  D000               	goto	i2l900
  2509                           opt subtitle "HI-TECH Software Omniscient Code Generator (Lite mode) build 49521"
  2510                           
  2511  000242                     i2l81:
  2512                           opt subtitle "HI-TECH Software Omniscient Code Generator (Lite mode) build 49521"
  2513                           
  2514  000242                     i2l900:
  2515                           opt subtitle "HI-TECH Software Omniscient Code Generator (Lite mode) build 49521"
  2516                           
  2517  000242  5016               	movf	((c:_Tms+1)),c,w
  2518  000244  0A03               	xorlw	3
  2519  000246  0EE8               	movlw	232
  2520  000248  B4D8               	btfsc	status,2
  2521  00024A  1815               	xorwf ((c:_Tms)),c,w
  2522                           opt subtitle "HI-TECH Software Omniscient Code Generator (Lite mode) build 49521"
  2523  00024C  A4D8               	btfss	status,2
  2524  00024E  D001               	goto	i2u28_41
  2525  000250  D001               	goto	i2u28_40
  2526  000252                     i2u28_41:
  2527  000252  D035               	goto	i2l82
  2528  000254                     i2u28_40:
  2529                           opt subtitle "HI-TECH Software Omniscient Code Generator (Lite mode) build 49521"
  2530                           
  2531  000254                     i2l902:
  2532                           opt subtitle "HI-TECH Software Omniscient Code Generator (Lite mode) build 49521"
  2533  000254  0E00               	movlw	high(0)
  2534  000256  6E16               	movwf	((c:_Tms+1)),c
  2535  000258  0E00               	movlw	low(0)
  2536  00025A  6E15               	movwf	((c:_Tms)),c
  2537                           opt subtitle "HI-TECH Software Omniscient Code Generator (Lite mode) build 49521"
  2538                           
  2539  00025C                     i2l904:
  2540                           opt subtitle "HI-TECH Software Omniscient Code Generator (Lite mode) build 49521"
  2541  00025C  2A1B               	incf	((c:_T1s)),c
  2542                           opt subtitle "HI-TECH Software Omniscient Code Generator (Lite mode) build 49521"
  2543                           
  2544  00025E                     i2l906:
  2545                           opt subtitle "HI-TECH Software Omniscient Code Generator (Lite mode) build 49521"
  2546  00025E  6E2A               	movwf	(??_isr+0+0)&0ffh,c
  2547  000260  0E01               	movlw	low(01h)
  2548  000262  6E1C               	movwf	((c:_blink)),c
  2549  000264  502A               	movf	(??_isr+0+0)&0ffh,c,w
  2550                           opt subtitle "HI-TECH Software Omniscient Code Generator (Lite mode) build 49521"
  2551                           
  2552  000266                     i2l908:
  2553                           opt subtitle "HI-TECH Software Omniscient Code Generator (Lite mode) build 49521"
  2554  000266  6E2A               	movwf	(??_isr+0+0)&0ffh,c
  2555  000268  0E00               	movlw	low(0)
  2556  00026A  6E1A               	movwf	((c:_LoopCounter)),c
  2557  00026C  502A               	movf	(??_isr+0+0)&0ffh,c,w
  2558                           opt subtitle "HI-TECH Software Omniscient Code Generator (Lite mode) build 49521"
  2559  00026E                     i2l910:
  2560  00026E  0E03               	movlw	(04h-1)
  2561  000270  641A               	cpfsgt	((c:_LoopCounter)),c
  2562  000272  D001               	goto	i2u29_41
  2563  000274  D001               	goto	i2u29_40
  2564  000276                     i2u29_41:
  2565  000276  D002               	goto	i2l914
  2566  000278                     i2u29_40:
  2567  000278  D022               	goto	i2l82
  2568                           opt subtitle "HI-TECH Software Omniscient Code Generator (Lite mode) build 49521"
  2569  00027A                     i2l912:
  2570  00027A  D021               	goto	i2l82
  2571                           opt subtitle "HI-TECH Software Omniscient Code Generator (Lite mode) build 49521"
  2572  00027C                     i2l83:
  2573                           opt subtitle "HI-TECH Software Omniscient Code Generator (Lite mode) build 49521"
  2574                           
  2575  00027C                     i2l914:
  2576                           opt subtitle "HI-TECH Software Omniscient Code Generator (Lite mode) build 49521"
  2577  00027C  501A               	movf	((c:_LoopCounter)),c,w
  2578  00027E  0D02               	mullw	02h
  2579  000280  0E01               	movlw	low((c:_OUTPUTS))
  2580  000282  24F3               	addwf	(prodl),c,w
  2581  000284  6ED9               	movwf	c:fsr2l
  2582  000286  0E00               	movlw	high((c:_OUTPUTS))
  2583  000288  20F4               	addwfc	prod+1,w
  2584  00028A  6EDA               	movwf	1+c:fsr2l
  2585  00028C  50DE               	movf	postinc2,w
  2586  00028E  10DD               	iorwf	postdec2,w
  2587  000290  B4D8               	btfsc	status,2
  2588  000292  D001               	goto	i2u30_41
  2589  000294  D001               	goto	i2u30_40
  2590  000296                     i2u30_41:
  2591  000296  D00C               	goto	i2l918
  2592  000298                     i2u30_40:
  2593                           opt subtitle "HI-TECH Software Omniscient Code Generator (Lite mode) build 49521"
  2594                           
  2595  000298                     i2l916:
  2596                           opt subtitle "HI-TECH Software Omniscient Code Generator (Lite mode) build 49521"
  2597  000298  501A               	movf	((c:_LoopCounter)),c,w
  2598  00029A  0D02               	mullw	02h
  2599  00029C  0E01               	movlw	low((c:_OUTPUTS))
  2600  00029E  24F3               	addwf	(prodl),c,w
  2601  0002A0  6ED9               	movwf	c:fsr2l
  2602  0002A2  0E00               	movlw	high((c:_OUTPUTS))
  2603  0002A4  20F4               	addwfc	prod+1,w
  2604  0002A6  6EDA               	movwf	1+c:fsr2l
  2605  0002A8  06DE               	decf	postinc2
  2606  0002AA  0E00               	movlw	0
  2607  0002AC  5ADD               	subwfb	postdec2
  2608  0002AE  D000               	goto	i2l918
  2609                           opt subtitle "HI-TECH Software Omniscient Code Generator (Lite mode) build 49521"
  2610                           
  2611  0002B0                     i2l85:
  2612                           opt subtitle "HI-TECH Software Omniscient Code Generator (Lite mode) build 49521"
  2613                           
  2614  0002B0                     i2l918:
  2615  0002B0  2A1A               	incf	((c:_LoopCounter)),c
  2616                           opt subtitle "HI-TECH Software Omniscient Code Generator (Lite mode) build 49521"
  2617  0002B2                     i2l920:
  2618  0002B2  0E03               	movlw	(04h-1)
  2619  0002B4  641A               	cpfsgt	((c:_LoopCounter)),c
  2620  0002B6  D001               	goto	i2u31_41
  2621  0002B8  D001               	goto	i2u31_40
  2622  0002BA                     i2u31_41:
  2623  0002BA  D7E0               	goto	i2l914
  2624  0002BC                     i2u31_40:
  2625  0002BC  D000               	goto	i2l82
  2626                           opt subtitle "HI-TECH Software Omniscient Code Generator (Lite mode) build 49521"
  2627  0002BE                     i2l84:
  2628                           opt subtitle "HI-TECH Software Omniscient Code Generator (Lite mode) build 49521"
  2629                           
  2630  0002BE                     i2l82:
  2631                           opt subtitle "HI-TECH Software Omniscient Code Generator (Lite mode) build 49521"
  2632                           
  2633                           opt pagewidth 120
  2634                           
  2635                           	opt lm
  2636  0002BE  929E               	bcf	((c:3998)),c,1	;volatile
  2637  0002C0  D000               	goto	i2l86
  2638                           opt subtitle "HI-TECH Software Omniscient Code Generator (Lite mode) build 49521"
  2639                           
  2640  0002C2                     i2l79:
  2641                           opt subtitle "HI-TECH Software Omniscient Code Generator (Lite mode) build 49521"
  2642                           
  2643  0002C2                     i2l86:
  2644  0002C2  C038  FFF5         	movff	??_isr+14,tablat+0
  2645  0002C6  C037  FFF8         	movff	??_isr+13,tblptru+0
  2646  0002CA  C036  FFF7         	movff	??_isr+12,tblptrh+0
  2647  0002CE  C035  FFF6         	movff	??_isr+11,tblptrl+0
  2648  0002D2  C034  FFF4         	movff	??_isr+10,prodh+0
  2649  0002D6  C033  FFF3         	movff	??_isr+9,prodl+0
  2650  0002DA  C032  FFDA         	movff	??_isr+8,fsr2h+0
  2651  0002DE  C031  FFD9         	movff	??_isr+7,fsr2l+0
  2652  0002E2  C030  FFE2         	movff	??_isr+6,fsr1h+0
  2653  0002E6  C02F  FFE1         	movff	??_isr+5,fsr1l+0
  2654  0002EA  C02E  FFEA         	movff	??_isr+4,fsr0h+0
  2655  0002EE  C02D  FFE9         	movff	??_isr+3,fsr0l+0
  2656  0002F2  C02C  FFFB         	movff	??_isr+2,pclat+1
  2657  0002F6  C02B  FFFA         	movff	??_isr+1,pclat+0
  2658  0002FA  0011               	retfie f
  2659                           opt subtitle "HI-TECH Software Omniscient Code Generator (Lite mode) build 49521"
  2660                           
  2661  0002FC                     	__end_of_isr:
  2662                           opt subtitle "HI-TECH Software Omniscient Code Generator (Lite mode) build 49521"
  2663                           
  2664                           opt pagewidth 120
  2665                           
  2666                           	opt lm
  2667                           
  2668                           	processor	18F2480
  2669                           porta	equ	0F80h
  2670                           portb	equ	0F81h
  2671                           portc	equ	0F82h
  2672                           portd	equ	0F83h
  2673                           porte	equ	0F84h
  2674                           lata	equ	0F89h
  2675                           latb	equ	0F8Ah
  2676                           latc	equ	0F8Bh
  2677                           latd	equ	0F8Ch
  2678                           late	equ	0F8Dh
  2679                           trisa	equ	0F92h
  2680                           trisb	equ	0F93h
  2681                           trisc	equ	0F94h
  2682                           trisd	equ	0F95h
  2683                           trise	equ	0F96h
  2684                           pie1	equ	0F9Dh
  2685                           pir1	equ	0F9Eh
  2686                           ipr1	equ	0F9Fh
  2687                           pie2	equ	0FA0h
  2688                           pir2	equ	0FA1h
  2689                           ipr2	equ	0FA2h
  2690                           t3con	equ	0FB1h
  2691                           tmr3l	equ	0FB2h
  2692                           tmr3h	equ	0FB3h
  2693                           ccp1con	equ	0FBDh
  2694                           ccpr1l	equ	0FBEh
  2695                           ccpr1h	equ	0FBFh
  2696  00043E                     __ptext6:
  2697                           opt subtitle "HI-TECH Software Omniscient Code Generator (Lite mode) build 49521"
  2698                           
  2699                           opt pagewidth 120
  2700                           
  2701  0000                     	__size_of___lwmod	equ	__end_of___lwmod-___lwmod
  2702                           opt subtitle "HI-TECH Software Omniscient Code Generator (Lite mode) build 49521"
  2703  00043E                     ___lwmod:
  2704                           opt subtitle "HI-TECH Software Omniscient Code Generator (Lite mode) build 49521"
  2705                           
  2706                           opt pagewidth 120
  2707  00043E                     i2l872:
  2708  00043E  5027               	movf	((c:___lwmod@divisor+1)),c,w
  2709  000440  1026               	iorwf ((c:___lwmod@divisor)),c,w
  2710                           opt subtitle "HI-TECH Software Omniscient Code Generator (Lite mode) build 49521"
  2711  000442  B4D8               	btfsc	status,2
  2712  000444  D001               	goto	i2u22_41
  2713  000446  D001               	goto	i2u22_40
  2714  000448                     i2u22_41:
  2715  000448  D023               	goto	i2l612
  2716  00044A                     i2u22_40:
  2717                           opt subtitle "HI-TECH Software Omniscient Code Generator (Lite mode) build 49521"
  2718                           
  2719  00044A                     i2l874:
  2720  00044A  6E28               	movwf	(??___lwmod+0+0)&0ffh,c
  2721  00044C  0E01               	movlw	low(01h)
  2722  00044E  6E29               	movwf	((c:___lwmod@counter)),c
  2723  000450  5028               	movf	(??___lwmod+0+0)&0ffh,c,w
  2724                           opt subtitle "HI-TECH Software Omniscient Code Generator (Lite mode) build 49521"
  2725  000452  D005               	goto	i2l878
  2726                           opt subtitle "HI-TECH Software Omniscient Code Generator (Lite mode) build 49521"
  2727  000454                     i2l614:
  2728                           opt subtitle "HI-TECH Software Omniscient Code Generator (Lite mode) build 49521"
  2729                           
  2730  000454                     i2l876:
  2731  000454  90D8               	bcf	status,0
  2732  000456  3626               	rlcf	((c:___lwmod@divisor)),c
  2733  000458  3627               	rlcf	((c:___lwmod@divisor+1)),c
  2734                           opt subtitle "HI-TECH Software Omniscient Code Generator (Lite mode) build 49521"
  2735  00045A  2A29               	incf	((c:___lwmod@counter)),c
  2736  00045C  D000               	goto	i2l878
  2737                           opt subtitle "HI-TECH Software Omniscient Code Generator (Lite mode) build 49521"
  2738                           
  2739  00045E                     i2l613:
  2740                           opt subtitle "HI-TECH Software Omniscient Code Generator (Lite mode) build 49521"
  2741                           
  2742  00045E                     i2l878:
  2743                           opt subtitle "HI-TECH Software Omniscient Code Generator (Lite mode) build 49521"
  2744  00045E  AE27               	btfss	((c:___lwmod@divisor+1)),c,(15)&7
  2745  000460  D001               	goto	i2u23_41
  2746  000462  D001               	goto	i2u23_40
  2747  000464                     i2u23_41:
  2748  000464  D7F7               	goto	i2l876
  2749  000466                     i2u23_40:
  2750  000466  D001               	goto	i2l880
  2751                           opt subtitle "HI-TECH Software Omniscient Code Generator (Lite mode) build 49521"
  2752  000468                     i2l615:
  2753  000468  D000               	goto	i2l880
  2754                           opt subtitle "HI-TECH Software Omniscient Code Generator (Lite mode) build 49521"
  2755                           
  2756  00046A                     i2l616:
  2757                           opt subtitle "HI-TECH Software Omniscient Code Generator (Lite mode) build 49521"
  2758                           
  2759  00046A                     i2l880:
  2760  00046A  5026               	movf	((c:___lwmod@divisor)),c,w
  2761  00046C  5C24               	subwf	((c:___lwmod@dividend)),c,w
  2762  00046E  5027               	movf	((c:___lwmod@divisor+1)),c,w
  2763  000470  5825               	subwfb	((c:___lwmod@dividend+1)),c,w
  2764  000472  A0D8               	btfss	status,0
  2765  000474  D001               	goto	i2u24_41
  2766  000476  D001               	goto	i2u24_40
  2767  000478                     i2u24_41:
  2768  000478  D005               	goto	i2l884
  2769  00047A                     i2u24_40:
  2770                           opt subtitle "HI-TECH Software Omniscient Code Generator (Lite mode) build 49521"
  2771                           
  2772  00047A                     i2l882:
  2773  00047A  5026               	movf	((c:___lwmod@divisor)),c,w
  2774  00047C  5E24               	subwf	((c:___lwmod@dividend)),c
  2775  00047E  5027               	movf	((c:___lwmod@divisor+1)),c,w
  2776  000480  5A25               	subwfb	((c:___lwmod@dividend+1)),c
  2777                           opt subtitle "HI-TECH Software Omniscient Code Generator (Lite mode) build 49521"
  2778  000482  D000               	goto	i2l884
  2779                           opt subtitle "HI-TECH Software Omniscient Code Generator (Lite mode) build 49521"
  2780  000484                     i2l617:
  2781                           opt subtitle "HI-TECH Software Omniscient Code Generator (Lite mode) build 49521"
  2782                           
  2783  000484                     i2l884:
  2784  000484  90D8               	bcf	status,0
  2785  000486  3227               	rrcf	((c:___lwmod@divisor+1)),c
  2786  000488  3226               	rrcf	((c:___lwmod@divisor)),c
  2787                           opt subtitle "HI-TECH Software Omniscient Code Generator (Lite mode) build 49521"
  2788                           
  2789  00048A                     i2l886:
  2790  00048A  2E29               	decfsz	((c:___lwmod@counter)),c
  2791                           opt subtitle "HI-TECH Software Omniscient Code Generator (Lite mode) build 49521"
  2792  00048C  D7EE               	goto	i2l880
  2793  00048E  D000               	goto	i2l612
  2794                           opt subtitle "HI-TECH Software Omniscient Code Generator (Lite mode) build 49521"
  2795  000490                     i2l618:
  2796                           opt subtitle "HI-TECH Software Omniscient Code Generator (Lite mode) build 49521"
  2797                           
  2798  000490                     i2l612:
  2799                           opt subtitle "HI-TECH Software Omniscient Code Generator (Lite mode) build 49521"
  2800  000490  C024  F024         	movff	(c:___lwmod@dividend),(c:?___lwmod)
  2801  000494  C025  F025         	movff	(c:___lwmod@dividend+1),(c:?___lwmod+1)
  2802                           opt subtitle "HI-TECH Software Omniscient Code Generator (Lite mode) build 49521"
  2803                           
  2804  000498                     i2l619:
  2805  000498  0012               	return
  2806                           opt subtitle "HI-TECH Software Omniscient Code Generator (Lite mode) build 49521"
  2807                           
  2808  00049A                     	__end_of___lwmod:
  2809                           opt subtitle "HI-TECH Software Omniscient Code Generator (Lite mode) build 49521"
  2810                           
  2811  0000                     __activetblptr	EQU	0
  2812                           opt subtitle "HI-TECH Software Omniscient Code Generator (Lite mode) build 49521"
  2813                           
  2814                           opt pagewidth 120
  2815  000000                     __ptext7:
  2816                           opt subtitle "HI-TECH Software Omniscient Code Generator (Lite mode) build 49521"
  2817                           
  2818                           opt pagewidth 120
  2819                           
  2820                           	opt lm
  2821  0000                     __Lparam	EQU	__Lrparam
  2822  0000                     __Hparam	EQU	__Hrparam


Data Sizes:
    Strings     0
    Constant    0
    Data        0
    BSS         35
    Persistent  0
    Stack       0

Auto Spaces:
    Space          Size  Autos    Used
    COMRAM           95     35      70
    BANK0           160      0       0
    BANK1           256      0       0
    BANK2           256      0       0

Pointer List with Targets:

    ?___lwmod	unsigned int  size(2) Largest target is 0

    debounce@counter	PTR unsigned char  size(2) Largest target is 1
		 -> BUTTON3_COUNTER(COMRAM[1]), BUTTON2_COUNTER(COMRAM[1]), BUTTON1_COUNTER(COMRAM[1]), 

    debounce@state	PTR unsigned char  size(2) Largest target is 1
		 -> BUTTON3_STATE(COMRAM[1]), BUTTON2_STATE(COMRAM[1]), BUTTON1_STATE(COMRAM[1]), 


Critical Paths under _main in COMRAM

    _main->_debounce
    _InitialiseHardware->_OpenTimer2

Critical Paths under _isr in COMRAM

    _isr->___lwmod

Critical Paths under _main in BANK0

    None.

Critical Paths under _isr in BANK0

    None.

Critical Paths under _main in BANK1

    None.

Critical Paths under _isr in BANK1

    None.

Critical Paths under _main in BANK2

    None.

Critical Paths under _isr in BANK2

    None.

Call Graph Tables:

 ---------------------------------------------------------------------------------
 (Depth) Function   	        Calls       Base Space   Used Autos Params    Refs
 ---------------------------------------------------------------------------------
 (0) _main                                                 9     9      0     195
                                             26 COMRAM     9     9      0
                 _InitialiseHardware
                  _InitialiseGlobals
                           _debounce
 ---------------------------------------------------------------------------------
 (1) _InitialiseHardware                                   1     1      0      30
                                             22 COMRAM     1     1      0
                         _OpenTimer2
 ---------------------------------------------------------------------------------
 (1) _InitialiseGlobals                                    4     4      0      45
                                             21 COMRAM     4     4      0
 ---------------------------------------------------------------------------------
 (1) _debounce                                             5     0      5     120
                                             21 COMRAM     5     0      5
 ---------------------------------------------------------------------------------
 (2) _OpenTimer2                                           1     0      1      30
                                             21 COMRAM     1     0      1
 ---------------------------------------------------------------------------------
 Estimated maximum stack depth 2
 ---------------------------------------------------------------------------------
 (Depth) Function   	        Calls       Base Space   Used Autos Params    Refs
 ---------------------------------------------------------------------------------
 (3) _isr                                                 15    15      0     105
                                              6 COMRAM    15    15      0
                            ___lwmod
 ---------------------------------------------------------------------------------
 (4) ___lwmod                                              6     2      4     105
                                              0 COMRAM     6     2      4
 ---------------------------------------------------------------------------------
 Estimated maximum stack depth 4
 ---------------------------------------------------------------------------------

 Call Graph Graphs:

 _main (ROOT)
   _InitialiseHardware
     _OpenTimer2
   _InitialiseGlobals
   _debounce

 _isr (ROOT)
   ___lwmod

 Address spaces:
Name               Size   Autos  Total    Cost      Usage
BIGRAM             2FF      0       0      10        0.0%
EEDATA             100      0       0       0        0.0%
BITBANK2           100      0       0       7        0.0%
BANK2              100      0       0       8        0.0%
BITBANK1           100      0       0       5        0.0%
BANK1              100      0       0       6        0.0%
BITBANK0            A0      0       0       3        0.0%
BANK0               A0      0       0       4        0.0%
BITCOMRAM           5F      0       0       0        0.0%
COMRAM              5F     23      46       1       73.7%
BITSFR_3             0      0       0      40        0.0%
SFR_3                0      0       0      40        0.0%
BITSFR_2             0      0       0      40        0.0%
SFR_2                0      0       0      40        0.0%
BITSFR_1             0      0       0      40        0.0%
SFR_1                0      0       0      40        0.0%
BITSFR               0      0       0      40        0.0%
SFR                  0      0       0      40        0.0%
STACK                0      0       6       2        0.0%
NULL                 0      0       0       0        0.0%
ABS                  0      0      46       9        0.0%
DATA                 0      0      4C      11        0.0%
CODE                 0      0       0       0        0.0%


Microchip Technology PIC18 Macro Assembler V1.12 build 49521 
Symbol Table                                                                                   Wed Jun 26 23:10:05 2013

                         l90 004A                           l91 0058                           l92 005A  
                         l93 0086                           l94 00A2                           l96 009E  
                         l97 00A6                           l89 004C                           l98 00EE  
                         l99 0100                           u10 0056                           u11 0054  
                         u20 0064                           u21 0062                           u30 006E  
                         u31 006A                           u40 008E                           u41 008C  
                         u50 0096                           u51 0094                           u60 009E  
                         u36 0070                           u61 009C                           u70 00E6  
                         u71 00E4                           u80 00F6                           u81 00F4  
                         u90 0128                           u91 0126   __end_of_InitialiseHardware 04DE  
                __CFG_BORV$3 000000                 __CFG_CP0$OFF 000000                 __CFG_CP1$OFF 000000  
                        l100 0168                          l101 0146                          l110 01BE  
                        l102 0166                          l111 01C0                          l103 0164  
                        l120 03CC                          l112 01C0                          l104 0178  
                        l105 0184                          l106 0194                          l123 0424  
                        l115 04DC                          l107 01A0                          l140 04F8  
                        l124 0422                          l108 01B8                          l141 04FA  
                        l125 043C                          l109 01BC                          l126 0432  
                        l118 0324                          l119 035C                          l139 04F6  
                        l800 0174                          l810 01AE                          l802 0184  
                        l820 02FC                          l812 049A                          l804 0190  
                        l830 0346                          l822 030C                          l814 04C6  
                        l806 01A0                          l840 03C4                          l824 0322  
                        l832 035C                          l816 04CC                          l808 01AC  
                        l760 0044                          l850 040A                          l842 03CE  
                        l834 03AC                          l826 0324                          l818 04D8  
                        l770 007C                          l762 0046                          l754 001C  
                        l860 043C                          l852 0416                          l844 03E2  
                        l836 03B4                          l828 0342                          l780 00DE  
                        l772 0086                          l764 004C                          l756 003C  
                        l870 04F2                          l862 04DE                          l854 0420  
                        l846 03EC                          l838 03BC                          l790 0130  
                        l782 00E6                          l774 008E                          l766 005A  
                        l758 0040                          l864 04E4                          l848 03FE  
                        l856 0424                          l792 013C                          l784 00F6  
                        l776 0096                          l768 0064                          l866 04E8  
                        l858 0432                          l794 014E                          l786 0100  
                        l778 00A6                          l868 04EA                          l796 015A  
                        l788 0128                          l798 0168                 __CFG_CPB$OFF 000000  
                        u100 0130                          u101 012E                          u110 013C  
                        u111 013A                          u200 03FE                          u120 014E  
                        u201 03FC                          u121 014C                          u210 04F2  
                        u130 015A                          u211 04F0                          u131 0158  
                        u140 0174                          u141 0172                          u150 0190  
                        u151 018E                          u160 01AC                          u161 01AA  
                        u170 0320                          u171 031E                          u180 035A  
                        u181 0358                          u190 03E2                          _PR2 000FCB  
                        u191 03E0                 __CFG_CPD$OFF 000000                          _T1s 001B  
                        _Tms 0015                          _isr 0008                          prod 000FF3  
                        wreg 000FE8                 __CFG_LVP$OFF 000000                 __CFG_WDT$OFF 000000  
                       ?_isr 0024                         _IPR1 000F9F                         _PIE1 000F9D  
                       i2l80 0228                         i2l81 0242                         i2l82 02BE  
                       i2l83 027C                         i2l84 02BE                         i2l85 02B0  
                       i2l86 02C2                         i2l79 02C2                         _TMR2 000FCC  
                       _main 001C                         _read 001D                         fsr0h 000FEA  
                       fsr1h 000FE2                         fsr0l 000FE9                         fsr2h 000FDA  
                       fsr1l 000FE1                         indf2 000FDF                         fsr2l 000FD9  
                       pclat 000FFA                         prodh 000FF4                         prodl 000FF3  
                       start 0018                __CFG_IESO$OFF 000000                __CFG_MCLRE$ON 000000  
                      ??_isr 002A                        ?_main 0024                        _CMCON 000FB4  
                      _T2CON 000FCA              __end_of___lwmod 049A                        i2l612 0490  
                      i2l613 045E                        i2l614 0454                        i2l615 0468  
                      i2l616 046A                        i2l617 0484                        i2l618 0490  
                      i2l619 0498                        i2l900 0242                        i2l910 026E  
                      i2l902 0254                        i2l920 02B2                        i2l912 027A  
                      i2l904 025C                        i2l914 027C                        i2l906 025E  
                      i2l916 0298                        i2l908 0266                        i2l918 02B0  
                      i2l880 046A                        i2l872 043E                        i2l882 047A  
                      i2l874 044A                        i2l890 01FA                        i2l884 0484  
                      i2l876 0454                        i2l892 01FE                        i2l886 048A  
                      i2l878 045E                        i2l894 021E                        i2l896 0228  
                      i2l888 01F2                        i2l898 0238                        _PORTA 000F80  
                      _PORTB 000F81                        _PORTC 000F82                        _TRISA 000F92  
                      _TRISB 000F93                        _TRISC 000F94                __CFG_PWRT$OFF 000000  
              __CFG_WRT0$OFF 000000                __CFG_WRT1$OFF 000000               __CFG_EBTR0$OFF 000000  
             __CFG_FCMEN$OFF 000000               __CFG_EBTR1$OFF 000000                __CFG_WRTB$OFF 000000  
              __CFG_WRTC$OFF 000000                __CFG_WRTD$OFF 000000               __CFG_EBTRB$OFF 000000  
                      _blink 001C                        main@i 003F                        tablat 000FF5  
                      status 000FD8              __initialization 04FC                 __end_of_main 01C4  
                     ??_main 003E                __activetblptr 000000                       _ADCON1 000FC1  
            __CFG_BBSIZ$1024 000000                   _OpenTimer2 04DE                       _INTCON 000FF2  
                     _TIMERS 0009             __end_of_debounce 043E               __CFG_XINST$OFF 000000  
             __CFG_STVREN$ON 000000                    ??___lwmod 0028             OpenTimer2@config 0039  
                     clear_0 0502              __CFG_BOREN$BOHW 000000                       tblptrh 000FF7  
                     tblptrl 000FF6                       tblptru 000FF8                   __accesstop 0060  
    __end_of__initialization 0508              __CFG_PBADEN$OFF 000000           InitialiseGlobals@i 003B  
             __pcstackCOMRAM 0024           _InitialiseHardware 049A                  ?_OpenTimer2 0039  
        ?_InitialiseHardware 0024                  _LoopCounter 001A         ??_InitialiseHardware 003A  
           _DebounceCounters 0011                    ?_debounce 0039                      i2u22_40 044A  
                    i2u30_40 0298                      i2u22_41 0448                      i2u30_41 0296  
                    i2u23_40 0466                      i2u31_40 02BC                      i2u23_41 0464  
                    i2u31_41 02BA                      i2u24_40 047A                      i2u24_41 0478  
                    i2u25_40 01FA                      i2u25_41 01F8                      i2u26_40 021E  
                    i2u26_41 021C                      i2u27_40 0238                      i2u27_41 0236  
                    i2u28_40 0254                      i2u28_41 0252                      i2u29_40 0278  
                    i2u29_41 0276                      _OUTPUTS 0001                      __Hparam 0000  
                    __Lparam 0000                      ___lwmod 043E                      __pcinit 04FC  
                    __ramtop 0300          __size_of_OpenTimer2 001E                      __ptext0 001C  
                    __ptext1 049A                      __ptext2 02FC                      __ptext3 03CE  
                    __ptext4 04DE                      __ptext6 043E                      __ptext7 0000  
                  _T2CONbits 000FCA                 __size_of_isr 02F4                   ??_debounce 003E  
             __pintcode_body 01C4                debounce@state 003A         end_of_initialization 0508  
                    int_func 01C4                      postdec2 000FDD                      postinc0 000FEE  
                    postinc2 000FDE                    _PORTAbits 000F80                    _PORTBbits 000F81  
                  _PORTCbits 000F82                 _BUTTON1_PREV 0017                 _BUTTON2_PREV 0018  
               _BUTTON3_PREV 0019          start_initialization 04FC                  __end_of_isr 02FC  
               ??_OpenTimer2 003A             __CFG_OSC$IRCIO67 000000             __CFG_LPT1OSC$OFF 000000  
         __end_of_OpenTimer2 04FC                  __pbssCOMRAM 0001            __size_of_debounce 0070  
          _InitialiseGlobals 02FC           ?_InitialiseGlobals 0024                    __pintcode 0008  
                   ?___lwmod 0024          ??_InitialiseGlobals 0039  __size_of_InitialiseHardware 0044  
  __end_of_InitialiseGlobals 03CE                 debounce@test 0039                     _PIE1bits 000F9D  
                   _PIR1bits 000F9E             __CFG_WDTPS$32768 000000              debounce@counter 003C  
            main@lightslatch 0045                     __Hrparam 0000                     __Lrparam 0000  
           __size_of___lwmod 005C                     _debounce 03CE   __size_of_InitialiseGlobals 00D2  
              __size_of_main 01A8                     main@temp 0041                     main@time 0043  
                   intlevel2 0000             ___lwmod@dividend 0024                   _OSCCONbits 000FD3  
            _BUTTON1_COUNTER 001E              _BUTTON2_COUNTER 0020              _BUTTON3_COUNTER 0022  
            ___lwmod@divisor 0026              ___lwmod@counter 0029                _BUTTON1_STATE 001F  
              _BUTTON2_STATE 0021                _BUTTON3_STATE 0023  
